LIBRARY ftpcli.dll
EXPORTS
_Unwind_Backtrace       	@1
_Unwind_DeleteException 	@2
_Unwind_FindEnclosingFunction	@3
_Unwind_Find_FDE        	@4
_Unwind_ForcedUnwind    	@5
_Unwind_GetCFA          	@6
_Unwind_GetDataRelBase  	@7
_Unwind_GetGR           	@8
_Unwind_GetIP           	@9
_Unwind_GetIPInfo       	@10
_Unwind_GetLanguageSpecificData	@11
_Unwind_GetRegionStart  	@12
_Unwind_GetTextRelBase  	@13
_Unwind_RaiseException  	@14
_Unwind_Resume          	@15
_Unwind_Resume_or_Rethrow	@16
_Unwind_SetGR           	@17
_Unwind_SetIP           	@18
_Z6GmTimeR2tmRKl        	@19
_Z7sprintfPcPKcz        	@20
_ZGVZN5nsFTP8CCommand9CCmd2Info11GetInstanceEvE13TheOneAndOnly	@21 DATA
_ZN14nsSmartPointer6RCIPtrIN5nsFTP13COutputStream6CPimplEE11CountHolderC1Ev	@22
_ZN14nsSmartPointer6RCIPtrIN5nsFTP13COutputStream6CPimplEE11CountHolderD0Ev	@23
_ZN14nsSmartPointer6RCIPtrIN5nsFTP13COutputStream6CPimplEE11CountHolderD1Ev	@24
_ZN14nsSmartPointer6RCIPtrIN5nsFTP13COutputStream6CPimplEE4InitEv	@25
_ZN14nsSmartPointer6RCIPtrIN5nsFTP13COutputStream6CPimplEEC1EPS3_	@26
_ZN14nsSmartPointer6RCIPtrIN5nsFTP13COutputStream6CPimplEED1Ev	@27
_ZN14nsSmartPointer6RCIPtrIN5nsFTP14CFTPFileStatusEE11CountHolderC1Ev	@28
_ZN14nsSmartPointer6RCIPtrIN5nsFTP14CFTPFileStatusEE11CountHolderD0Ev	@29
_ZN14nsSmartPointer6RCIPtrIN5nsFTP14CFTPFileStatusEE11CountHolderD1Ev	@30
_ZN14nsSmartPointer6RCIPtrIN5nsFTP14CFTPFileStatusEE4InitEv	@31
_ZN14nsSmartPointer6RCIPtrIN5nsFTP14CFTPFileStatusEEC1EPS2_	@32
_ZN14nsSmartPointer6RCIPtrIN5nsFTP14CFTPFileStatusEEC1ERKS3_	@33
_ZN14nsSmartPointer6RCIPtrIN5nsFTP14CFTPFileStatusEED1Ev	@34
_ZN14nsSmartPointer6RCIPtrIN5nsFTP8CCommand13CExtendedInfoEE11CountHolderC1Ev	@35
_ZN14nsSmartPointer6RCIPtrIN5nsFTP8CCommand13CExtendedInfoEE11CountHolderD0Ev	@36
_ZN14nsSmartPointer6RCIPtrIN5nsFTP8CCommand13CExtendedInfoEE11CountHolderD1Ev	@37
_ZN14nsSmartPointer6RCIPtrIN5nsFTP8CCommand13CExtendedInfoEE4InitEv	@38
_ZN14nsSmartPointer6RCIPtrIN5nsFTP8CCommand13CExtendedInfoEEC1EPS3_	@39
_ZN14nsSmartPointer6RCIPtrIN5nsFTP8CCommand13CExtendedInfoEEC1ERKS4_	@40
_ZN14nsSmartPointer6RCIPtrIN5nsFTP8CCommand13CExtendedInfoEED1Ev	@41
_ZN14nsSmartPointer8RCObject12AddReferenceEv	@42
_ZN14nsSmartPointer8RCObject15RemoveReferenceEv	@43
_ZN14nsSmartPointer8RCObjectC2Ev	@44
_ZN14nsSmartPointer8RCObjectD0Ev	@45
_ZN14nsSmartPointer8RCObjectD1Ev	@46
_ZN14nsSmartPointer8RCObjectD2Ev	@47
_ZN5nsFTP10CFTPClient12GetObserversEv	@48
_ZN5nsFTP10CFTPClient12TObserverSetC1Ev	@49
_ZN5nsFTP10CFTPClient12TObserverSetD1Ev	@50
_ZN5nsFTP10CFTPClient12TransferFileERKS0_RKNSt7__cxx1112basic_stringIcSt11char_traitsIcESaIcEEES2_SA_RKNS_15CRepresentationEb	@51
_ZN5nsFTP10CFTPClient13SetResumeModeEb	@52
_ZN5nsFTP10CFTPClient14AttachObserverEPNS0_13CNotificationE	@53
_ZN5nsFTP10CFTPClient14DetachObserverEPNS0_13CNotificationE	@54
_ZN5nsFTP10CFTPClient15IFileListParserC2Ev	@55
_ZN5nsFTP10CFTPClient15IFileListParserD2Ev	@56
_ZN5nsFTP10CFTPClient17SetFileListParserESt10shared_ptrINS0_15IFileListParserEE	@57
_ZN5nsFTP10CFTPClient18OpenControlChannelERKNSt7__cxx1112basic_stringIcSt11char_traitsIcESaIcEEEt	@58
_ZN5nsFTP10CFTPClient19CloseControlChannelEv	@59
_ZN5nsFTP10CFTPClient21ITransferNotification14OnPreBytesSendEPcjRj	@60
_ZN5nsFTP10CFTPClient21ITransferNotification15OnBytesReceivedERKSt6vectorIcSaIcEEl	@61
_ZN5nsFTP10CFTPClient21ITransferNotificationC2Ev	@62
_ZN5nsFTP10CFTPClient21ITransferNotificationD2Ev	@63
_ZN5nsFTP10CFTPClient5LoginERKNS_10CLogonInfoE	@64
_ZN5nsFTP10CFTPClient6LogoutEv	@65
_ZN5nsFTP10CFTPClientC1ESt10shared_ptrIN8nsSocket15IBlockingSocketEEjjjRKNSt7__cxx1112basic_stringIcSt11char_traitsIcESaIcEEE	@66
_ZN5nsFTP10CFTPClientC2ESt10shared_ptrIN8nsSocket15IBlockingSocketEEjjjRKNSt7__cxx1112basic_stringIcSt11char_traitsIcESaIcEEE	@67
_ZN5nsFTP10CFTPClientD0Ev	@68
_ZN5nsFTP10CFTPClientD1Ev	@69
_ZN5nsFTP10CFTPClientD2Ev	@70
_ZN5nsFTP10CLogonInfo11SetFirewallERKNSt7__cxx1112basic_stringIcSt11char_traitsIcESaIcEEES8_S8_tRKNS_13CFirewallTypeE	@71
_ZN5nsFTP10CLogonInfo7SetHostERKNSt7__cxx1112basic_stringIcSt11char_traitsIcESaIcEEEtS8_S8_S8_	@72
_ZN5nsFTP10CLogonInfoC1ERKNSt7__cxx1112basic_stringIcSt11char_traitsIcESaIcEEEtS8_S8_S8_	@73
_ZN5nsFTP10CLogonInfoC1ERKNSt7__cxx1112basic_stringIcSt11char_traitsIcESaIcEEEtS8_S8_S8_S8_S8_S8_tRKNS_13CFirewallTypeE	@74
_ZN5nsFTP10CLogonInfoC1Ev	@75
_ZN5nsFTP10CLogonInfoC2ERKNSt7__cxx1112basic_stringIcSt11char_traitsIcESaIcEEEtS8_S8_S8_	@76
_ZN5nsFTP10CLogonInfoC2ERKNSt7__cxx1112basic_stringIcSt11char_traitsIcESaIcEEEtS8_S8_S8_S8_S8_S8_tRKNS_13CFirewallTypeE	@77
_ZN5nsFTP10CLogonInfoC2Ev	@78
_ZN5nsFTP10CLogonInfoD1Ev	@79
_ZN5nsFTP10CLogonInfoaSERKS0_	@80
_ZN5nsFTP10IInterfaceC2Ev	@81
_ZN5nsFTP10IInterfaceD0Ev	@82
_ZN5nsFTP10IInterfaceD1Ev	@83
_ZN5nsFTP10IInterfaceD2Ev	@84
_ZN5nsFTP10ReplaceStrERNSt7__cxx1112basic_stringIcSt11char_traitsIcESaIcEEERKS5_S8_	@85
_ZN5nsFTP11CMakeStringC1Ev	@86
_ZN5nsFTP11CMakeStringD1Ev	@87
_ZN5nsFTP11CMakeStringlsERKNSt7__cxx1112basic_stringIcSt11char_traitsIcESaIcEEE	@88
_ZN5nsFTP11CMakeStringlsEm	@89
_ZN5nsFTP11CTypeFormatC1ERKS0_	@90
_ZN5nsFTP11CTypeFormatC1Ev	@91
_ZN5nsFTP11CTypeFormataSERKS0_	@92
_ZN5nsFTP13CFirewallType11GetAllTypesERSt6vectorIS0_SaIS0_EE	@93
_ZN5nsFTP13CFirewallType4NoneEv	@94
_ZN5nsFTP13CFirewallTypeC1ENS0_17TFirewallTypeEnumE	@95
_ZN5nsFTP13CFirewallTypeC1ERKS0_	@96
_ZN5nsFTP13CFirewallTypeC1Ev	@97
_ZN5nsFTP13CFirewallTypeaSERKS0_	@98
_ZN5nsFTP13COutputStream11GetNextLineERNSt7__cxx1112basic_stringIcSt11char_traitsIcESaIcEEE	@99
_ZN5nsFTP13COutputStream14OnPreBytesSendEPcjRj	@100
_ZN5nsFTP13COutputStream15OnBytesReceivedERKSt6vectorIcSaIcEEl	@101
_ZN5nsFTP13COutputStream16SetStartPositionEv	@102
_ZN5nsFTP13COutputStream20SetLocalStreamOffsetEm	@103
_ZN5nsFTP13COutputStream6CPimplC1ERKNSt7__cxx1112basic_stringIcSt11char_traitsIcESaIcEEES9_	@104
_ZN5nsFTP13COutputStream6CPimplC1ERKS1_	@105
_ZN5nsFTP13COutputStream6CPimplD1Ev	@106
_ZN5nsFTP13COutputStream9SetBufferERKNSt7__cxx1112basic_stringIcSt11char_traitsIcESaIcEEE	@107
_ZN5nsFTP13COutputStreamC1ERKNSt7__cxx1112basic_stringIcSt11char_traitsIcESaIcEEES8_	@108
_ZN5nsFTP13COutputStreamC2ERKNSt7__cxx1112basic_stringIcSt11char_traitsIcESaIcEEES8_	@109
_ZN5nsFTP13COutputStreamD0Ev	@110
_ZN5nsFTP13COutputStreamD1Ev	@111
_ZN5nsFTP13COutputStreamD2Ev	@112
_ZN5nsFTP14CFTPFileStatus10AttributesB5cxx11Ev	@113
_ZN5nsFTP14CFTPFileStatus11CwdPossibleEv	@114
_ZN5nsFTP14CFTPFileStatus12RetrPossibleEv	@115
_ZN5nsFTP14CFTPFileStatus2IDB5cxx11Ev	@116
_ZN5nsFTP14CFTPFileStatus3GIDB5cxx11Ev	@117
_ZN5nsFTP14CFTPFileStatus3UIDB5cxx11Ev	@118
_ZN5nsFTP14CFTPFileStatus4LinkB5cxx11Ev	@119
_ZN5nsFTP14CFTPFileStatus4NameB5cxx11Ev	@120
_ZN5nsFTP14CFTPFileStatus4PathB5cxx11Ev	@121
_ZN5nsFTP14CFTPFileStatus4SizeEv	@122
_ZN5nsFTP14CFTPFileStatus5MTimeEv	@123
_ZN5nsFTP14CFTPFileStatus5ResetEv	@124
_ZN5nsFTP14CFTPFileStatus6IDTypeEv	@125
_ZN5nsFTP14CFTPFileStatus8SizeTypeEv	@126
_ZN5nsFTP14CFTPFileStatus9MTimeTypeEv	@127
_ZN5nsFTP14CFTPFileStatusC1ERKS0_	@128
_ZN5nsFTP14CFTPFileStatusC1Ev	@129
_ZN5nsFTP14CFTPFileStatusC2ERKS0_	@130
_ZN5nsFTP14CFTPFileStatusC2Ev	@131
_ZN5nsFTP14CFTPFileStatusD1Ev	@132
_ZN5nsFTP14CFTPFileStatusD2Ev	@133
_ZN5nsFTP14CFTPFileStatusaSERKS0_	@134
_ZN5nsFTP14CFTPListParser14IsMSDOSListingEPKc	@135
_ZN5nsFTP14CFTPListParser17IsMultiNetListingEPKc	@136
_ZN5nsFTP14CFTPListParser17ParseMSDOSListingERNS_14CFTPFileStatusEPKci	@137
_ZN5nsFTP14CFTPListParser18IsUNIXStyleListingEPKc	@138
_ZN5nsFTP14CFTPListParser20ParseMultiNetListingERNS_14CFTPFileStatusEPKci	@139
_ZN5nsFTP14CFTPListParser21ParseUNIXStyleListingERNS_14CFTPFileStatusEPKci	@140
_ZN5nsFTP14CFTPListParser5ParseERNS_14CFTPFileStatusERKNSt7__cxx1112basic_stringIcSt11char_traitsIcESaIcEEE	@141
_ZN5nsFTP14CFTPListParser6IsEPLSEPKc	@142
_ZN5nsFTP14CFTPListParser8GuessTAIEll	@143
_ZN5nsFTP14CFTPListParser8m_MonthsE	@144 DATA
_ZN5nsFTP14CFTPListParser9ParseEPLFERNS_14CFTPFileStatusEPKci	@145
_ZN5nsFTP14CFTPListParserC1Ev	@146
_ZN5nsFTP14CFTPListParserC2Ev	@147
_ZN5nsFTP14CFTPListParserD0Ev	@148
_ZN5nsFTP14CFTPListParserD1Ev	@149
_ZN5nsFTP14CFTPListParserD2Ev	@150
_ZN5nsFTP15CRepresentationC1ENS_5CTypeE	@151
_ZN5nsFTP15CRepresentationC1ERKS0_	@152
_ZN5nsFTP15CRepresentationaSERKS0_	@153
_ZN5nsFTP4CArgC1ERKNSt7__cxx1112basic_stringIcSt11char_traitsIcESaIcEEE	@154
_ZN5nsFTP4CArgC1Ev      	@155
_ZN5nsFTP4CArgD1Ev      	@156
_ZN5nsFTP5CFile14OnPreBytesSendEPcjRj	@157
_ZN5nsFTP5CFile15OnBytesReceivedERKSt6vectorIcSaIcEEl	@158
_ZN5nsFTP5CFile20SetLocalStreamOffsetEm	@159
_ZN5nsFTP5CFile4OpenERKNSt7__cxx1112basic_stringIcSt11char_traitsIcESaIcEEES8_	@160
_ZN5nsFTP5CFile4ReadEPvjj	@161
_ZN5nsFTP5CFile4SeekElNS0_11TOriginEnumE	@162
_ZN5nsFTP5CFile5CloseEv 	@163
_ZN5nsFTP5CFile5WriteEPKvjj	@164
_ZN5nsFTP5CFileC1Ev     	@165
_ZN5nsFTP5CFileD0Ev     	@166
_ZN5nsFTP5CFileD1Ev     	@167
_ZN5nsFTP5CType5ASCIIEv 	@168
_ZN5nsFTP5CTypeC1ENS0_9TTypeEnumE	@169
_ZN5nsFTP5CTypeC1ERKS0_ 	@170
_ZN5nsFTP5CTypeaSERKS0_ 	@171
_ZN5nsFTP6CReply3SetERKNSt7__cxx1112basic_stringIcSt11char_traitsIcESaIcEEE	@172
_ZN5nsFTP6CReply5CCode3SetERKNSt7__cxx1112basic_stringIcSt11char_traitsIcESaIcEEE	@173
_ZN5nsFTP6CReply5CCodeC1Ev	@174
_ZN5nsFTP6CReplyC1Ev    	@175
_ZN5nsFTP6CReplyD1Ev    	@176
_ZN5nsFTP8CCommand13CExtendedInfoC1ERKNSt7__cxx1112basic_stringIcSt11char_traitsIcESaIcEEES9_jjNS0_18TSpecificationEnumENS0_9TTypeEnumE	@177
_ZN5nsFTP8CCommand13CExtendedInfoC1ERKS1_	@178
_ZN5nsFTP8CCommand13CExtendedInfoD0Ev	@179
_ZN5nsFTP8CCommand13CExtendedInfoD1Ev	@180
_ZN5nsFTP8CCommand13IExtendedInfoC2Ev	@181
_ZN5nsFTP8CCommand13IExtendedInfoD2Ev	@182
_ZN5nsFTP8CCommand3CWDEv	@183
_ZN5nsFTP8CCommand3MKDEv	@184
_ZN5nsFTP8CCommand3PWDEv	@185
_ZN5nsFTP8CCommand3RMDEv	@186
_ZN5nsFTP8CCommand4ABOREv	@187
_ZN5nsFTP8CCommand4ACCTEv	@188
_ZN5nsFTP8CCommand4ALLOEv	@189
_ZN5nsFTP8CCommand4APPEEv	@190
_ZN5nsFTP8CCommand4CDUPEv	@191
_ZN5nsFTP8CCommand4DELEEv	@192
_ZN5nsFTP8CCommand4HELPEv	@193
_ZN5nsFTP8CCommand4LISTEv	@194
_ZN5nsFTP8CCommand4MDTMEv	@195
_ZN5nsFTP8CCommand4MODEEv	@196
_ZN5nsFTP8CCommand4NLSTEv	@197
_ZN5nsFTP8CCommand4NOOPEv	@198
_ZN5nsFTP8CCommand4OPENEv	@199
_ZN5nsFTP8CCommand4PASSEv	@200
_ZN5nsFTP8CCommand4PASVEv	@201
_ZN5nsFTP8CCommand4PORTEv	@202
_ZN5nsFTP8CCommand4QUITEv	@203
_ZN5nsFTP8CCommand4REINEv	@204
_ZN5nsFTP8CCommand4RESTEv	@205
_ZN5nsFTP8CCommand4RETREv	@206
_ZN5nsFTP8CCommand4RNFREv	@207
_ZN5nsFTP8CCommand4RNTOEv	@208
_ZN5nsFTP8CCommand4SITEEv	@209
_ZN5nsFTP8CCommand4SIZEEv	@210
_ZN5nsFTP8CCommand4SMNTEv	@211
_ZN5nsFTP8CCommand4STATEv	@212
_ZN5nsFTP8CCommand4STOREv	@213
_ZN5nsFTP8CCommand4STOUEv	@214
_ZN5nsFTP8CCommand4STRUEv	@215
_ZN5nsFTP8CCommand4SYSTEv	@216
_ZN5nsFTP8CCommand4TYPEEv	@217
_ZN5nsFTP8CCommand4USEREv	@218
_ZN5nsFTP8CCommand9CCmd2Info11GetInstanceEv	@219
_ZN5nsFTP8CCommand9CCmd2Info3GetENS0_12TCommandEnumE	@220
_ZN5nsFTP8CCommand9CCmd2Info6InsertENS0_12TCommandEnumERKNSt7__cxx1112basic_stringIcSt11char_traitsIcESaIcEEESA_jjNS0_18TSpecificationEnumENS0_9TTypeEnumE	@221
_ZN5nsFTP8CCommand9CCmd2InfoC1Ev	@222
_ZN5nsFTP8CCommand9CCmd2InfoC2Ev	@223
_ZN5nsFTP8CCommand9CCmd2InfoD1Ev	@224
_ZN5nsFTP8CCommandC1ENS0_12TCommandEnumE	@225
_ZN5nsFTP8CCommandaSERKS0_	@226
_ZN8nsHelper20CObserverPatternBaseIPN5nsFTP10CFTPClient12TObserverSetEPNS2_13CNotificationEE6AttachES4_	@227
_ZN8nsHelper20CObserverPatternBaseIPN5nsFTP10CFTPClient12TObserverSetEPNS2_13CNotificationEE6DetachES4_	@228
_ZN8nsHelper20CObserverPatternBaseIPN5nsFTP10CFTPClient13CNotificationEPNS2_12TObserverSetEE6AttachES4_	@229
_ZN8nsHelper20CObserverPatternBaseIPN5nsFTP10CFTPClient13CNotificationEPNS2_12TObserverSetEE6DetachES4_	@230
_ZN8nsHelper20CObserverPatternBaseIPN5nsFTP10CFTPClient13CNotificationEPNS2_12TObserverSetEEC2Ev	@231
_ZN8nsHelper20CObserverPatternBaseIPN5nsFTP10CFTPClient13CNotificationEPNS2_12TObserverSetEED2Ev	@232
_ZN8nsHelper4CCnv13TStringToLongERKNSt7__cxx1112basic_stringIcSt11char_traitsIcESaIcEEE	@233
_ZN8nsHelper4CCnv15ConvertToStringERKNSt7__cxx1112basic_stringIcSt11char_traitsIcESaIcEEE	@234
_ZN8nsHelper4CCnv15ConvertToStringERKNSt7__cxx1112basic_stringIcSt11char_traitsIcESaIcEEERS6_	@235
_ZN8nsHelper4CCnv16ConvertToTStringB5cxx11EPKc	@236
_ZN8nsHelper4CCnv16ConvertToTStringEPKcRNSt7__cxx1112basic_stringIcSt11char_traitsIcESaIcEEE	@237
_ZN8nsHelper6CError12GetLastErrorEv	@238
_ZN8nsHelper6CError19GetErrorDescriptionB5cxx11Ei	@239
_ZN8nsSocket15CBlockingSocket13GetHostByAddrEPK8sockaddr	@240
_ZN8nsSocket15CBlockingSocket13GetHostByNameEPKct	@241
_ZN8nsSocket15CBlockingSocket5CloseEv	@242
_ZN8nsSocket15CBlockingSocket6CreateEi	@243
_ZN8nsSocket15CBlockingSocket7CleanupEv	@244
_ZN8nsSocket15CBlockingSocketC1Ev	@245
_ZN8nsSocket15CBlockingSocketC2Ev	@246
_ZN8nsSocket15CBlockingSocketD0Ev	@247
_ZN8nsSocket15CBlockingSocketD1Ev	@248
_ZN8nsSocket15CBlockingSocketD2Ev	@249
_ZN8nsSocket15IBlockingSocketC2Ev	@250
_ZN8nsSocket15IBlockingSocketD2Ev	@251
_ZN8nsSocket19CHttpBlockingSocket16ReadHttpResponseEPcii	@252
_ZN8nsSocket19CHttpBlockingSocket18ReadHttpHeaderLineEPcii	@253
_ZN8nsSocket19CHttpBlockingSocketC1Ev	@254
_ZN8nsSocket19CHttpBlockingSocketC2Ev	@255
_ZN8nsSocket19CHttpBlockingSocketD0Ev	@256
_ZN8nsSocket19CHttpBlockingSocketD1Ev	@257
_ZN8nsSocket19CHttpBlockingSocketD2Ev	@258
_ZN8nsSocket24CBlockingSocketException15GetErrorMessageB5cxx11EPj	@259
_ZN8nsSocket24CBlockingSocketException15GetErrorMessageEPcjPj	@260
_ZN8nsSocket24CBlockingSocketExceptionC1EPKc	@261
_ZN8nsSocket24CBlockingSocketExceptionC2EPKc	@262
_ZN8nsSocket24CBlockingSocketExceptionD0Ev	@263
_ZN8nsSocket24CBlockingSocketExceptionD1Ev	@264
_ZN8nsSocket35CreateDefaultBlockingSocketInstanceEv	@265
_ZN8nsSocket7_selectEjP6fd_setS1_S1_PK7timeval	@266
_ZN8nsSocket9CSockAddr13DottedDecimalB5cxx11Ev	@267
_ZN8nsSocket9CSockAddrC1ERK11sockaddr_in	@268
_ZN8nsSocket9CSockAddrC1Emt	@269
_ZN8nsSocket9CSockAddrC1Ev	@270
_ZN8nsSocket9CSockAddrcvP8sockaddrEv	@271
_ZN9__gnu_cxx13new_allocatorIN14nsSmartPointer6RCIPtrIN5nsFTP14CFTPFileStatusEEEE10deallocateEPS5_j	@272
_ZN9__gnu_cxx13new_allocatorIN14nsSmartPointer6RCIPtrIN5nsFTP14CFTPFileStatusEEEE7destroyIS5_EEvPT_	@273
_ZN9__gnu_cxx13new_allocatorIN14nsSmartPointer6RCIPtrIN5nsFTP14CFTPFileStatusEEEE8allocateEjPKv	@274
_ZN9__gnu_cxx13new_allocatorIN14nsSmartPointer6RCIPtrIN5nsFTP14CFTPFileStatusEEEE9constructIS5_JRKS5_EEEvPT_DpOT0_	@275
_ZN9__gnu_cxx13new_allocatorIN5nsFTP13CFirewallTypeEE10deallocateEPS2_j	@276
_ZN9__gnu_cxx13new_allocatorIN5nsFTP13CFirewallTypeEE8allocateEjPKv	@277
_ZN9__gnu_cxx13new_allocatorINSt7__cxx1112basic_stringIcSt11char_traitsIcESaIcEEEE10deallocateEPS6_j	@278
_ZN9__gnu_cxx13new_allocatorINSt7__cxx1112basic_stringIcSt11char_traitsIcESaIcEEEE7destroyIS6_EEvPT_	@279
_ZN9__gnu_cxx13new_allocatorINSt7__cxx1112basic_stringIcSt11char_traitsIcESaIcEEEE8allocateEjPKv	@280
_ZN9__gnu_cxx13new_allocatorINSt7__cxx1112basic_stringIcSt11char_traitsIcESaIcEEEE9constructIS6_JRKS6_EEEvPT_DpOT0_	@281
_ZN9__gnu_cxx13new_allocatorINSt7__cxx1112basic_stringIcSt11char_traitsIcESaIcEEEE9constructIS6_JS6_EEEvPT_DpOT0_	@282
_ZN9__gnu_cxx13new_allocatorINSt7__cxx1112basic_stringIcSt11char_traitsIcESaIcEEEEC2Ev	@283
_ZN9__gnu_cxx13new_allocatorINSt7__cxx1112basic_stringIcSt11char_traitsIcESaIcEEEED2Ev	@284
_ZN9__gnu_cxx13new_allocatorIPNSt7__cxx1112basic_stringIcSt11char_traitsIcESaIcEEEE10deallocateEPS7_j	@285
_ZN9__gnu_cxx13new_allocatorIPNSt7__cxx1112basic_stringIcSt11char_traitsIcESaIcEEEE8allocateEjPKv	@286
_ZN9__gnu_cxx13new_allocatorIPNSt7__cxx1112basic_stringIcSt11char_traitsIcESaIcEEEEC2Ev	@287
_ZN9__gnu_cxx13new_allocatorIPNSt7__cxx1112basic_stringIcSt11char_traitsIcESaIcEEEED2Ev	@288
_ZN9__gnu_cxx13new_allocatorISt13_Rb_tree_nodeIPN5nsFTP10CFTPClient12TObserverSetEEE10deallocateEPS6_j	@289
_ZN9__gnu_cxx13new_allocatorISt13_Rb_tree_nodeIPN5nsFTP10CFTPClient12TObserverSetEEE7destroyIS5_EEvPT_	@290
_ZN9__gnu_cxx13new_allocatorISt13_Rb_tree_nodeIPN5nsFTP10CFTPClient12TObserverSetEEE8allocateEjPKv	@291
_ZN9__gnu_cxx13new_allocatorISt13_Rb_tree_nodeIPN5nsFTP10CFTPClient12TObserverSetEEE9constructIS5_JRKS5_EEEvPT_DpOT0_	@292
_ZN9__gnu_cxx13new_allocatorISt13_Rb_tree_nodeIPN5nsFTP10CFTPClient13CNotificationEEE10deallocateEPS6_j	@293
_ZN9__gnu_cxx13new_allocatorISt13_Rb_tree_nodeIPN5nsFTP10CFTPClient13CNotificationEEE7destroyIS5_EEvPT_	@294
_ZN9__gnu_cxx13new_allocatorISt13_Rb_tree_nodeIPN5nsFTP10CFTPClient13CNotificationEEE8allocateEjPKv	@295
_ZN9__gnu_cxx13new_allocatorISt13_Rb_tree_nodeIPN5nsFTP10CFTPClient13CNotificationEEE9constructIS5_JRKS5_EEEvPT_DpOT0_	@296
_ZN9__gnu_cxx13new_allocatorISt13_Rb_tree_nodeIPN5nsFTP10CFTPClient13CNotificationEEEC2Ev	@297
_ZN9__gnu_cxx13new_allocatorISt13_Rb_tree_nodeIPN5nsFTP10CFTPClient13CNotificationEEED2Ev	@298
_ZN9__gnu_cxx13new_allocatorISt13_Rb_tree_nodeISt4pairIKN5nsFTP8CCommand12TCommandEnumEN14nsSmartPointer6RCIPtrINS4_13CExtendedInfoEEEEEE10deallocateEPSC_j	@299
_ZN9__gnu_cxx13new_allocatorISt13_Rb_tree_nodeISt4pairIKN5nsFTP8CCommand12TCommandEnumEN14nsSmartPointer6RCIPtrINS4_13CExtendedInfoEEEEEE7destroyISB_EEvPT_	@300
_ZN9__gnu_cxx13new_allocatorISt13_Rb_tree_nodeISt4pairIKN5nsFTP8CCommand12TCommandEnumEN14nsSmartPointer6RCIPtrINS4_13CExtendedInfoEEEEEE8allocateEjPKv	@301
_ZN9__gnu_cxx13new_allocatorISt13_Rb_tree_nodeISt4pairIKN5nsFTP8CCommand12TCommandEnumEN14nsSmartPointer6RCIPtrINS4_13CExtendedInfoEEEEEE9constructISB_JS2_IS5_SA_EEEEvPT_DpOT0_	@302
_ZN9__gnu_cxx13new_allocatorISt13_Rb_tree_nodeISt4pairIKN5nsFTP8CCommand12TCommandEnumEN14nsSmartPointer6RCIPtrINS4_13CExtendedInfoEEEEEEC2Ev	@303
_ZN9__gnu_cxx13new_allocatorISt13_Rb_tree_nodeISt4pairIKN5nsFTP8CCommand12TCommandEnumEN14nsSmartPointer6RCIPtrINS4_13CExtendedInfoEEEEEED2Ev	@304
_ZN9__gnu_cxx13new_allocatorIcE10deallocateEPcj	@305
_ZN9__gnu_cxx13new_allocatorIcE8allocateEjPKv	@306
_ZN9__gnu_cxx16__aligned_membufIPN5nsFTP10CFTPClient12TObserverSetEE6_M_ptrEv	@307
_ZN9__gnu_cxx16__aligned_membufIPN5nsFTP10CFTPClient12TObserverSetEE7_M_addrEv	@308
_ZN9__gnu_cxx16__aligned_membufIPN5nsFTP10CFTPClient13CNotificationEE6_M_ptrEv	@309
_ZN9__gnu_cxx16__aligned_membufIPN5nsFTP10CFTPClient13CNotificationEE7_M_addrEv	@310
_ZN9__gnu_cxx16__aligned_membufISt4pairIKN5nsFTP8CCommand12TCommandEnumEN14nsSmartPointer6RCIPtrINS3_13CExtendedInfoEEEEE6_M_ptrEv	@311
_ZN9__gnu_cxx16__aligned_membufISt4pairIKN5nsFTP8CCommand12TCommandEnumEN14nsSmartPointer6RCIPtrINS3_13CExtendedInfoEEEEE7_M_addrEv	@312
_ZN9__gnu_cxx17__normal_iteratorIPKNSt7__cxx1112basic_stringIcSt11char_traitsIcESaIcEEESt6vectorIS6_SaIS6_EEEC1ERKS8_	@313
_ZN9__gnu_cxx17__normal_iteratorIPKNSt7__cxx1112basic_stringIcSt11char_traitsIcESaIcEEESt6vectorIS6_SaIS6_EEEppEv	@314
_ZN9__gnu_cxx17__normal_iteratorIPKcNSt7__cxx1112basic_stringIcSt11char_traitsIcESaIcEEEEC1IPcEERKNS0_IT_NS_11__enable_ifIXsrSt10__are_sameISC_SB_E7__valueES8_E6__typeEEE	@315
_ZN9__gnu_cxx17__normal_iteratorIPKcNSt7__cxx1112basic_stringIcSt11char_traitsIcESaIcEEEEppEv	@316
_ZN9__gnu_cxx17__normal_iteratorIPKcSt6vectorIcSaIcEEEC1ERKS2_	@317
_ZN9__gnu_cxx17__normal_iteratorIPN14nsSmartPointer6RCIPtrIN5nsFTP14CFTPFileStatusEEESt6vectorIS5_SaIS5_EEEC1ERKS6_	@318
_ZN9__gnu_cxx17__normal_iteratorIPNSt7__cxx1112basic_stringIcSt11char_traitsIcESaIcEEESt6vectorIS6_SaIS6_EEEC1ERKS7_	@319
_ZN9__gnu_cxx17__normal_iteratorIPcNSt7__cxx1112basic_stringIcSt11char_traitsIcESaIcEEEEC1ERKS1_	@320
_ZN9__gnu_cxx17__normal_iteratorIPcNSt7__cxx1112basic_stringIcSt11char_traitsIcESaIcEEEEppEv	@321
_ZN9__gnu_cxx17__normal_iteratorIPcSt6vectorIcSaIcEEEC1ERKS1_	@322
_ZN9__gnu_cxx5__ops16__iter_comp_iterINS_17__normal_iteratorIPKcNSt7__cxx1112basic_stringIcSt11char_traitsIcESaIcEEEEEEENS0_17_Iter_equals_iterIT_EENS0_19_Iter_equal_to_iterESD_	@323
_ZN9__gnu_cxx5__ops17_Iter_equals_iterINS_17__normal_iteratorIPKcNSt7__cxx1112basic_stringIcSt11char_traitsIcESaIcEEEEEEC1ESB_	@324
_ZN9__gnu_cxx5__ops17_Iter_equals_iterINS_17__normal_iteratorIPKcNSt7__cxx1112basic_stringIcSt11char_traitsIcESaIcEEEEEEclINS2_IPcSA_EEEEbT_	@325
_ZN9__gnu_cxx5__ops20__iter_equal_to_iterEv	@326
_ZN9__gnu_cxxeqIPKNSt7__cxx1112basic_stringIcSt11char_traitsIcESaIcEEESt6vectorIS6_SaIS6_EEEEbRKNS_17__normal_iteratorIT_T0_EESH_	@327
_ZN9__gnu_cxxeqIPKcNSt7__cxx1112basic_stringIcSt11char_traitsIcESaIcEEEEEbRKNS_17__normal_iteratorIT_T0_EESE_	@328
_ZN9__gnu_cxxeqIPcNSt7__cxx1112basic_stringIcSt11char_traitsIcESaIcEEEEEbRKNS_17__normal_iteratorIT_T0_EESD_	@329
_ZN9__gnu_cxxmiIPN14nsSmartPointer6RCIPtrIN5nsFTP14CFTPFileStatusEEESt6vectorIS5_SaIS5_EEEENS_17__normal_iteratorIT_T0_E15difference_typeERKSD_SG_	@330
_ZN9__gnu_cxxmiIPNSt7__cxx1112basic_stringIcSt11char_traitsIcESaIcEEESt6vectorIS6_SaIS6_EEEENS_17__normal_iteratorIT_T0_E15difference_typeERKSE_SH_	@331
_ZN9__gnu_cxxmiIPcNSt7__cxx1112basic_stringIcSt11char_traitsIcESaIcEEEEENS_17__normal_iteratorIT_T0_E15difference_typeERKSB_SE_	@332
_ZN9__gnu_cxxneIPKNSt7__cxx1112basic_stringIcSt11char_traitsIcESaIcEEESt6vectorIS6_SaIS6_EEEEbRKNS_17__normal_iteratorIT_T0_EESH_	@333
_ZN9__gnu_cxxneIPKcNSt7__cxx1112basic_stringIcSt11char_traitsIcESaIcEEEEEbRKNS_17__normal_iteratorIT_T0_EESE_	@334
_ZN9__gnu_cxxneIPcNSt7__cxx1112basic_stringIcSt11char_traitsIcESaIcEEEEEbRKNS_17__normal_iteratorIT_T0_EESD_	@335
_ZNK14nsSmartPointer6RCIPtrIN5nsFTP13COutputStream6CPimplEEptEv	@336
_ZNK14nsSmartPointer6RCIPtrIN5nsFTP14CFTPFileStatusEEdeEv	@337
_ZNK14nsSmartPointer6RCIPtrIN5nsFTP14CFTPFileStatusEEptEv	@338
_ZNK14nsSmartPointer6RCIPtrIN5nsFTP8CCommand13CExtendedInfoEEdeEv	@339
_ZNK14nsSmartPointer8RCObject11IsShareableEv	@340
_ZNK5nsFTP10CFTPClient10UploadFileERKNSt7__cxx1112basic_stringIcSt11char_traitsIcESaIcEEES8_bRKNS_15CRepresentationEb	@341
_ZNK5nsFTP10CFTPClient10UploadFileERKS0_RKNSt7__cxx1112basic_stringIcSt11char_traitsIcESaIcEEESA_RKNS_15CRepresentationEb	@342
_ZNK5nsFTP10CFTPClient10UploadFileERNS0_21ITransferNotificationERKNSt7__cxx1112basic_stringIcSt11char_traitsIcESaIcEEEbRKNS_15CRepresentationEb	@343
_ZNK5nsFTP10CFTPClient11GetResponseERNS_6CReplyE	@344
_ZNK5nsFTP10CFTPClient11IsConnectedEv	@345
_ZNK5nsFTP10CFTPClient11ReceiveDataERNS0_21ITransferNotificationERN8nsSocket15IBlockingSocketE	@346
_ZNK5nsFTP10CFTPClient11ReportErrorERKNSt7__cxx1112basic_stringIcSt11char_traitsIcESaIcEEES8_m	@347
_ZNK5nsFTP10CFTPClient11SendCommandERKNS_8CCommandERKNS_4CArgE	@348
_ZNK5nsFTP10CFTPClient11SendCommandERKNS_8CCommandERKNS_4CArgERNS_6CReplyE	@349
_ZNK5nsFTP10CFTPClient12DownloadFileERKNSt7__cxx1112basic_stringIcSt11char_traitsIcESaIcEEERKS0_S8_RKNS_15CRepresentationEb	@350
_ZNK5nsFTP10CFTPClient12DownloadFileERKNSt7__cxx1112basic_stringIcSt11char_traitsIcESaIcEEERNS0_21ITransferNotificationERKNS_15CRepresentationEb	@351
_ZNK5nsFTP10CFTPClient12DownloadFileERKNSt7__cxx1112basic_stringIcSt11char_traitsIcESaIcEEES8_RKNS_15CRepresentationEb	@352
_ZNK5nsFTP10CFTPClient12ReinitializeEv	@353
_ZNK5nsFTP10CFTPClient12TransferDataERKNS_8CCommandERNS0_21ITransferNotificationERN8nsSocket15IBlockingSocketE	@354
_ZNK5nsFTP10CFTPClient12TransferModeERKNS_13CTransferModeE	@355
_ZNK5nsFTP10CFTPClient13FileStructureERKNS_10CStructureE	@356
_ZNK5nsFTP10CFTPClient13MakeDirectoryERKNSt7__cxx1112basic_stringIcSt11char_traitsIcESaIcEEE	@357
_ZNK5nsFTP10CFTPClient14SiteParametersERKNSt7__cxx1112basic_stringIcSt11char_traitsIcESaIcEEE	@358
_ZNK5nsFTP10CFTPClient14StructureMountERKNSt7__cxx1112basic_stringIcSt11char_traitsIcESaIcEEE	@359
_ZNK5nsFTP10CFTPClient16RemoveDirectoryAERKNSt7__cxx1112basic_stringIcSt11char_traitsIcESaIcEEE	@360
_ZNK5nsFTP10CFTPClient16SimpleErrorCheckERKNS_6CReplyE	@361
_ZNK5nsFTP10CFTPClient18IsTransferringDataEv	@362
_ZNK5nsFTP10CFTPClient18RepresentationTypeERKNS_15CRepresentationEm	@363
_ZNK5nsFTP10CFTPClient19IsResumeModeEnabledEv	@364
_ZNK5nsFTP10CFTPClient19_RepresentationTypeERKNS_15CRepresentationEm	@365
_ZNK5nsFTP10CFTPClient20FileModificationTimeERKNSt7__cxx1112basic_stringIcSt11char_traitsIcESaIcEEER2tm	@366
_ZNK5nsFTP10CFTPClient20FileModificationTimeERKNSt7__cxx1112basic_stringIcSt11char_traitsIcESaIcEEERS6_	@367
_ZNK5nsFTP10CFTPClient21GetSingleResponseLineERNSt7__cxx1112basic_stringIcSt11char_traitsIcESaIcEEE	@368
_ZNK5nsFTP10CFTPClient21PrintWorkingDirectoryEv	@369
_ZNK5nsFTP10CFTPClient22ChangeWorkingDirectoryERKNSt7__cxx1112basic_stringIcSt11char_traitsIcESaIcEEE	@370
_ZNK5nsFTP10CFTPClient23ChangeToParentDirectoryEv	@371
_ZNK5nsFTP10CFTPClient24GetIpAddressFromResponseERKNSt7__cxx1112basic_stringIcSt11char_traitsIcESaIcEEERmRt	@372
_ZNK5nsFTP10CFTPClient24OpenActiveDataConnectionERN8nsSocket15IBlockingSocketERKNS_8CCommandERKNSt7__cxx1112basic_stringIcSt11char_traitsIcESaIcEEEm	@373
_ZNK5nsFTP10CFTPClient25ExecuteDatachannelCommandERKNS_8CCommandERKNSt7__cxx1112basic_stringIcSt11char_traitsIcESaIcEEERKNS_15CRepresentationEbmRNS0_21ITransferNotificationE	@374
_ZNK5nsFTP10CFTPClient25OpenPassiveDataConnectionERN8nsSocket15IBlockingSocketERKNS_8CCommandERKNSt7__cxx1112basic_stringIcSt11char_traitsIcESaIcEEEm	@375
_ZNK5nsFTP10CFTPClient4HelpERKNSt7__cxx1112basic_stringIcSt11char_traitsIcESaIcEEE	@376
_ZNK5nsFTP10CFTPClient4ListERKNSt7__cxx1112basic_stringIcSt11char_traitsIcESaIcEEERSt6vectorIN14nsSmartPointer6RCIPtrINS_14CFTPFileStatusEEESaISD_EEb	@377
_ZNK5nsFTP10CFTPClient4ListERKNSt7__cxx1112basic_stringIcSt11char_traitsIcESaIcEEERSt6vectorIS6_SaIS6_EEb	@378
_ZNK5nsFTP10CFTPClient4MoveERKNSt7__cxx1112basic_stringIcSt11char_traitsIcESaIcEEES8_	@379
_ZNK5nsFTP10CFTPClient4NoopEv	@380
_ZNK5nsFTP10CFTPClient5AbortEv	@381
_ZNK5nsFTP10CFTPClient6DeleteERKNSt7__cxx1112basic_stringIcSt11char_traitsIcESaIcEEE	@382
_ZNK5nsFTP10CFTPClient6RenameERKNSt7__cxx1112basic_stringIcSt11char_traitsIcESaIcEEES8_	@383
_ZNK5nsFTP10CFTPClient6StatusERKNSt7__cxx1112basic_stringIcSt11char_traitsIcESaIcEEE	@384
_ZNK5nsFTP10CFTPClient6SystemEv	@385
_ZNK5nsFTP10CFTPClient7PassiveERmRt	@386
_ZNK5nsFTP10CFTPClient7RestartEm	@387
_ZNK5nsFTP10CFTPClient8AllocateEiPKi	@388
_ZNK5nsFTP10CFTPClient8DataPortERKNSt7__cxx1112basic_stringIcSt11char_traitsIcESaIcEEEt	@389
_ZNK5nsFTP10CFTPClient8FileSizeERKNSt7__cxx1112basic_stringIcSt11char_traitsIcESaIcEEERl	@390
_ZNK5nsFTP10CFTPClient8NameListERKNSt7__cxx1112basic_stringIcSt11char_traitsIcESaIcEEERSt6vectorIN14nsSmartPointer6RCIPtrINS_14CFTPFileStatusEEESaISD_EEb	@391
_ZNK5nsFTP10CFTPClient8NameListERKNSt7__cxx1112basic_stringIcSt11char_traitsIcESaIcEEERSt6vectorIS6_SaIS6_EEb	@392
_ZNK5nsFTP10CFTPClient8SendDataERNS0_21ITransferNotificationERN8nsSocket15IBlockingSocketE	@393
_ZNK5nsFTP10CLogonInfo10FwPasswordB5cxx11Ev	@394
_ZNK5nsFTP10CLogonInfo10FwUsernameB5cxx11Ev	@395
_ZNK5nsFTP10CLogonInfo6FwHostB5cxx11Ev	@396
_ZNK5nsFTP10CLogonInfo6FwPortEv	@397
_ZNK5nsFTP10CLogonInfo6FwTypeEv	@398
_ZNK5nsFTP10CLogonInfo7AccountB5cxx11Ev	@399
_ZNK5nsFTP10CLogonInfo8HostnameB5cxx11Ev	@400
_ZNK5nsFTP10CLogonInfo8HostportEv	@401
_ZNK5nsFTP10CLogonInfo8PasswordB5cxx11Ev	@402
_ZNK5nsFTP10CLogonInfo8UsernameB5cxx11Ev	@403
_ZNK5nsFTP10CStructure8AsStringB5cxx11Ev	@404
_ZNK5nsFTP11CMakeStringcvNSt7__cxx1112basic_stringIcSt11char_traitsIcESaIcEEEEv	@405
_ZNK5nsFTP11CTypeFormat6AsEnumEv	@406
_ZNK5nsFTP11CTypeFormat7IsValidEv	@407
_ZNK5nsFTP11CTypeFormat8AsStringB5cxx11Ev	@408
_ZNK5nsFTP11CTypeFormateqERKS0_	@409
_ZNK5nsFTP13CFirewallType15AsDisplayStringB5cxx11Ev	@410
_ZNK5nsFTP13CFirewallType15AsStorageStringB5cxx11Ev	@411
_ZNK5nsFTP13CFirewallType6AsEnumEv	@412
_ZNK5nsFTP13CFirewallTypeeqERKS0_	@413
_ZNK5nsFTP13COutputStream18GetLocalStreamNameB5cxx11Ev	@414
_ZNK5nsFTP13COutputStream18GetLocalStreamSizeEv	@415
_ZNK5nsFTP13COutputStream9GetBufferB5cxx11Ev	@416
_ZNK5nsFTP13CTransferMode8AsStringB5cxx11Ev	@417
_ZNK5nsFTP14CFTPFileStatuseqERKS0_	@418
_ZNK5nsFTP14CFTPFileStatusneERKS0_	@419
_ZNK5nsFTP14CFTPListParser10CheckMonthEPKcS2_	@420
_ZNK5nsFTP14CFTPListParser5ToTAIElll	@421
_ZNK5nsFTP14CFTPListParser7GetLongEPKciRl	@422
_ZNK5nsFTP14CFTPListParser7GetYearEl	@423
_ZNK5nsFTP14CFTPListParser8GetMonthEPKci	@424
_ZNK5nsFTP15CRepresentation4TypeEv	@425
_ZNK5nsFTP15CRepresentation6FormatEv	@426
_ZNK5nsFTP15CRepresentationeqERKS0_	@427
_ZNK5nsFTP5CFile18GetLocalStreamNameB5cxx11Ev	@428
_ZNK5nsFTP5CFile18GetLocalStreamSizeEv	@429
_ZNK5nsFTP5CType6AsEnumEv	@430
_ZNK5nsFTP5CType8AsStringB5cxx11Ev	@431
_ZNK5nsFTP5CTypeeqERKS0_	@432
_ZNK5nsFTP6CReply4CodeEv	@433
_ZNK5nsFTP6CReply5CCode15IsNegativeReplyEv	@434
_ZNK5nsFTP6CReply5CCode15IsPositiveReplyEv	@435
_ZNK5nsFTP6CReply5CCode25IsPositiveCompletionReplyEv	@436
_ZNK5nsFTP6CReply5CCode26IsPositivePreliminaryReplyEv	@437
_ZNK5nsFTP6CReply5CCode27IsPositiveIntermediateReplyEv	@438
_ZNK5nsFTP6CReply5CCode34IsPermanentNegativeCompletionReplyEv	@439
_ZNK5nsFTP6CReply5CCode34IsTransientNegativeCompletionReplyEv	@440
_ZNK5nsFTP6CReply5CCode5ValueEv	@441
_ZNK5nsFTP6CReply5ValueB5cxx11Ev	@442
_ZNK5nsFTP8CCommand13CExtendedInfo15GetServerStringB5cxx11Ev	@443
_ZNK5nsFTP8CCommand13CExtendedInfo16GetSpecificationEv	@444
_ZNK5nsFTP8CCommand13CExtendedInfo21GetNumberOfParametersEv	@445
_ZNK5nsFTP8CCommand13CExtendedInfo29GetCompleteServerStringSyntaxB5cxx11Ev	@446
_ZNK5nsFTP8CCommand13CExtendedInfo29GetNumberOfOptionalParametersEv	@447
_ZNK5nsFTP8CCommand13CExtendedInfo7GetTypeEv	@448
_ZNK5nsFTP8CCommand15GetExtendedInfoEv	@449
_ZNK5nsFTP8CCommand20IsDatachannelCommandEv	@450
_ZNK5nsFTP8CCommand24IsDatachannelReadCommandEv	@451
_ZNK5nsFTP8CCommand25IsDatachannelWriteCommandEv	@452
_ZNK5nsFTP8CCommand6AsEnumEv	@453
_ZNK5nsFTP8CCommand8AsStringB5cxx11ERKNS_4CArgE	@454
_ZNK5nsFTP8CCommand8AsStringB5cxx11Ev	@455
_ZNK5nsFTP8CCommandeqERKS0_	@456
_ZNK8nsSocket15CBlockingSocket11GetPeerAddrEP8sockaddr	@457
_ZNK8nsSocket15CBlockingSocket11GetSockAddrEP8sockaddr	@458
_ZNK8nsSocket15CBlockingSocket12SendDatagramEPKciPK8sockaddri	@459
_ZNK8nsSocket15CBlockingSocket14CreateInstanceEv	@460
_ZNK8nsSocket15CBlockingSocket15ReceiveDatagramEPciP8sockaddri	@461
_ZNK8nsSocket15CBlockingSocket16CheckReadabilityEv	@462
_ZNK8nsSocket15CBlockingSocket4BindEPK8sockaddr	@463
_ZNK8nsSocket15CBlockingSocket4SendEPKcii	@464
_ZNK8nsSocket15CBlockingSocket5WriteEPKcii	@465
_ZNK8nsSocket15CBlockingSocket6AcceptERNS_15IBlockingSocketEP8sockaddr	@466
_ZNK8nsSocket15CBlockingSocket6ListenEv	@467
_ZNK8nsSocket15CBlockingSocket7ConnectEPK8sockaddr	@468
_ZNK8nsSocket15CBlockingSocket7ReceiveEPcii	@469
_ZNK8nsSocket15CBlockingSocketcvjEv	@470
_ZNK8nsSocket9CSockAddr4PortEv	@471
_ZNK9__gnu_cxx13new_allocatorIN14nsSmartPointer6RCIPtrIN5nsFTP14CFTPFileStatusEEEE8max_sizeEv	@472
_ZNK9__gnu_cxx13new_allocatorIN5nsFTP13CFirewallTypeEE8max_sizeEv	@473
_ZNK9__gnu_cxx13new_allocatorINSt7__cxx1112basic_stringIcSt11char_traitsIcESaIcEEEE8max_sizeEv	@474
_ZNK9__gnu_cxx13new_allocatorIPNSt7__cxx1112basic_stringIcSt11char_traitsIcESaIcEEEE8max_sizeEv	@475
_ZNK9__gnu_cxx13new_allocatorISt13_Rb_tree_nodeIPN5nsFTP10CFTPClient12TObserverSetEEE8max_sizeEv	@476
_ZNK9__gnu_cxx13new_allocatorISt13_Rb_tree_nodeIPN5nsFTP10CFTPClient13CNotificationEEE8max_sizeEv	@477
_ZNK9__gnu_cxx13new_allocatorISt13_Rb_tree_nodeISt4pairIKN5nsFTP8CCommand12TCommandEnumEN14nsSmartPointer6RCIPtrINS4_13CExtendedInfoEEEEEE8max_sizeEv	@478
_ZNK9__gnu_cxx13new_allocatorIcE8max_sizeEv	@479
_ZNK9__gnu_cxx16__aligned_membufIPN5nsFTP10CFTPClient12TObserverSetEE6_M_ptrEv	@480
_ZNK9__gnu_cxx16__aligned_membufIPN5nsFTP10CFTPClient12TObserverSetEE7_M_addrEv	@481
_ZNK9__gnu_cxx16__aligned_membufIPN5nsFTP10CFTPClient13CNotificationEE6_M_ptrEv	@482
_ZNK9__gnu_cxx16__aligned_membufIPN5nsFTP10CFTPClient13CNotificationEE7_M_addrEv	@483
_ZNK9__gnu_cxx16__aligned_membufISt4pairIKN5nsFTP8CCommand12TCommandEnumEN14nsSmartPointer6RCIPtrINS3_13CExtendedInfoEEEEE6_M_ptrEv	@484
_ZNK9__gnu_cxx16__aligned_membufISt4pairIKN5nsFTP8CCommand12TCommandEnumEN14nsSmartPointer6RCIPtrINS3_13CExtendedInfoEEEEE7_M_addrEv	@485
_ZNK9__gnu_cxx17__normal_iteratorIPKNSt7__cxx1112basic_stringIcSt11char_traitsIcESaIcEEESt6vectorIS6_SaIS6_EEE4baseEv	@486
_ZNK9__gnu_cxx17__normal_iteratorIPKNSt7__cxx1112basic_stringIcSt11char_traitsIcESaIcEEESt6vectorIS6_SaIS6_EEEdeEv	@487
_ZNK9__gnu_cxx17__normal_iteratorIPKNSt7__cxx1112basic_stringIcSt11char_traitsIcESaIcEEESt6vectorIS6_SaIS6_EEEptEv	@488
_ZNK9__gnu_cxx17__normal_iteratorIPKcNSt7__cxx1112basic_stringIcSt11char_traitsIcESaIcEEEE4baseEv	@489
_ZNK9__gnu_cxx17__normal_iteratorIPKcNSt7__cxx1112basic_stringIcSt11char_traitsIcESaIcEEEEdeEv	@490
_ZNK9__gnu_cxx17__normal_iteratorIPKcSt6vectorIcSaIcEEE4baseEv	@491
_ZNK9__gnu_cxx17__normal_iteratorIPKcSt6vectorIcSaIcEEEdeEv	@492
_ZNK9__gnu_cxx17__normal_iteratorIPKcSt6vectorIcSaIcEEEplEi	@493
_ZNK9__gnu_cxx17__normal_iteratorIPN14nsSmartPointer6RCIPtrIN5nsFTP14CFTPFileStatusEEESt6vectorIS5_SaIS5_EEE4baseEv	@494
_ZNK9__gnu_cxx17__normal_iteratorIPNSt7__cxx1112basic_stringIcSt11char_traitsIcESaIcEEESt6vectorIS6_SaIS6_EEE4baseEv	@495
_ZNK9__gnu_cxx17__normal_iteratorIPcNSt7__cxx1112basic_stringIcSt11char_traitsIcESaIcEEEE4baseEv	@496
_ZNK9__gnu_cxx17__normal_iteratorIPcNSt7__cxx1112basic_stringIcSt11char_traitsIcESaIcEEEEdeEv	@497
_ZNK9__gnu_cxx17__normal_iteratorIPcNSt7__cxx1112basic_stringIcSt11char_traitsIcESaIcEEEEplEi	@498
_ZNK9__gnu_cxx17__normal_iteratorIPcSt6vectorIcSaIcEEEdeEv	@499
_ZNK9__gnu_cxx5__ops19_Iter_equal_to_iterclINS_17__normal_iteratorIPcNSt7__cxx1112basic_stringIcSt11char_traitsIcESaIcEEEEENS3_IPKcSA_EEEEbT_T0_	@500
_ZNKSt10_Select1stISt4pairIKN5nsFTP8CCommand12TCommandEnumEN14nsSmartPointer6RCIPtrINS2_13CExtendedInfoEEEEEclERKS9_	@501
_ZNKSt10_Select1stISt4pairIKN5nsFTP8CCommand12TCommandEnumEN14nsSmartPointer6RCIPtrINS2_13CExtendedInfoEEEEEclIS0_IS3_S8_EEERNT_10first_typeERSD_	@502
_ZNKSt11_Deque_baseINSt7__cxx1112basic_stringIcSt11char_traitsIcESaIcEEESaIS5_EE19_M_get_Tp_allocatorEv	@503
_ZNKSt11_Deque_baseINSt7__cxx1112basic_stringIcSt11char_traitsIcESaIcEEESaIS5_EE20_M_get_map_allocatorEv	@504
_ZNKSt12_Vector_baseIN14nsSmartPointer6RCIPtrIN5nsFTP14CFTPFileStatusEEESaIS4_EE19_M_get_Tp_allocatorEv	@505
_ZNKSt12_Vector_baseIN5nsFTP13CFirewallTypeESaIS1_EE19_M_get_Tp_allocatorEv	@506
_ZNKSt12_Vector_baseINSt7__cxx1112basic_stringIcSt11char_traitsIcESaIcEEESaIS5_EE19_M_get_Tp_allocatorEv	@507
_ZNKSt12__shared_ptrIN5nsFTP10CFTPClient15IFileListParserELN9__gnu_cxx12_Lock_policyE2EE3getEv	@508
_ZNKSt12__shared_ptrIN5nsFTP15CRepresentationELN9__gnu_cxx12_Lock_policyE2EE3getEv	@509
_ZNKSt12__shared_ptrIN8nsSocket15IBlockingSocketELN9__gnu_cxx12_Lock_policyE2EE3getEv	@510
_ZNKSt13_Rb_tree_nodeIPN5nsFTP10CFTPClient12TObserverSetEE9_M_valptrEv	@511
_ZNKSt13_Rb_tree_nodeIPN5nsFTP10CFTPClient13CNotificationEE9_M_valptrEv	@512
_ZNKSt13_Rb_tree_nodeISt4pairIKN5nsFTP8CCommand12TCommandEnumEN14nsSmartPointer6RCIPtrINS2_13CExtendedInfoEEEEE9_M_valptrEv	@513
_ZNKSt13move_iteratorIPNSt7__cxx1112basic_stringIcSt11char_traitsIcESaIcEEEE4baseEv	@514
_ZNKSt13move_iteratorIPNSt7__cxx1112basic_stringIcSt11char_traitsIcESaIcEEEEdeEv	@515
_ZNKSt15_Deque_iteratorINSt7__cxx1112basic_stringIcSt11char_traitsIcESaIcEEERS5_PS5_EdeEv	@516
_ZNKSt17_Rb_tree_iteratorIPN5nsFTP10CFTPClient12TObserverSetEEeqERKS4_	@517
_ZNKSt17_Rb_tree_iteratorIPN5nsFTP10CFTPClient13CNotificationEEeqERKS4_	@518
_ZNKSt17_Rb_tree_iteratorISt4pairIKN5nsFTP8CCommand12TCommandEnumEN14nsSmartPointer6RCIPtrINS2_13CExtendedInfoEEEEEeqERKSA_	@519
_ZNKSt19__shared_ptr_accessIN5nsFTP10CFTPClient15IFileListParserELN9__gnu_cxx12_Lock_policyE2ELb0ELb0EE6_M_getEv	@520
_ZNKSt19__shared_ptr_accessIN5nsFTP10CFTPClient15IFileListParserELN9__gnu_cxx12_Lock_policyE2ELb0ELb0EEptEv	@521
_ZNKSt19__shared_ptr_accessIN5nsFTP15CRepresentationELN9__gnu_cxx12_Lock_policyE2ELb0ELb0EE6_M_getEv	@522
_ZNKSt19__shared_ptr_accessIN5nsFTP15CRepresentationELN9__gnu_cxx12_Lock_policyE2ELb0ELb0EEdeEv	@523
_ZNKSt19__shared_ptr_accessIN8nsSocket15IBlockingSocketELN9__gnu_cxx12_Lock_policyE2ELb0ELb0EE6_M_getEv	@524
_ZNKSt19__shared_ptr_accessIN8nsSocket15IBlockingSocketELN9__gnu_cxx12_Lock_policyE2ELb0ELb0EEdeEv	@525
_ZNKSt19__shared_ptr_accessIN8nsSocket15IBlockingSocketELN9__gnu_cxx12_Lock_policyE2ELb0ELb0EEptEv	@526
_ZNKSt23_Rb_tree_const_iteratorIPN5nsFTP10CFTPClient12TObserverSetEEeqERKS4_	@527
_ZNKSt23_Rb_tree_const_iteratorIPN5nsFTP10CFTPClient12TObserverSetEEneERKS4_	@528
_ZNKSt23_Rb_tree_const_iteratorIPN5nsFTP10CFTPClient13CNotificationEEdeEv	@529
_ZNKSt23_Rb_tree_const_iteratorIPN5nsFTP10CFTPClient13CNotificationEEeqERKS4_	@530
_ZNKSt23_Rb_tree_const_iteratorIPN5nsFTP10CFTPClient13CNotificationEEneERKS4_	@531
_ZNKSt23_Rb_tree_const_iteratorISt4pairIKN5nsFTP8CCommand12TCommandEnumEN14nsSmartPointer6RCIPtrINS2_13CExtendedInfoEEEEEneERKSA_	@532
_ZNKSt23_Rb_tree_const_iteratorISt4pairIKN5nsFTP8CCommand12TCommandEnumEN14nsSmartPointer6RCIPtrINS2_13CExtendedInfoEEEEEptEv	@533
_ZNKSt3setIPN5nsFTP10CFTPClient12TObserverSetESt4lessIS3_ESaIS3_EE3endEv	@534
_ZNKSt3setIPN5nsFTP10CFTPClient13CNotificationESt4lessIS3_ESaIS3_EE3endEv	@535
_ZNKSt3setIPN5nsFTP10CFTPClient13CNotificationESt4lessIS3_ESaIS3_EE5beginEv	@536
_ZNKSt4lessIN5nsFTP8CCommand12TCommandEnumEEclERKS2_S5_	@537
_ZNKSt4lessIPN5nsFTP10CFTPClient12TObserverSetEEclERKS3_S6_	@538
_ZNKSt4lessIPN5nsFTP10CFTPClient13CNotificationEEclERKS3_S6_	@539
_ZNKSt5dequeINSt7__cxx1112basic_stringIcSt11char_traitsIcESaIcEEESaIS5_EE5emptyEv	@540
_ZNKSt5queueINSt7__cxx1112basic_stringIcSt11char_traitsIcESaIcEEESt5dequeIS5_SaIS5_EEE5emptyEv	@541
_ZNKSt6vectorIN14nsSmartPointer6RCIPtrIN5nsFTP14CFTPFileStatusEEESaIS4_EE12_M_check_lenEjPKc	@542
_ZNKSt6vectorIN14nsSmartPointer6RCIPtrIN5nsFTP14CFTPFileStatusEEESaIS4_EE4sizeEv	@543
_ZNKSt6vectorIN14nsSmartPointer6RCIPtrIN5nsFTP14CFTPFileStatusEEESaIS4_EE8max_sizeEv	@544
_ZNKSt6vectorIN5nsFTP13CFirewallTypeESaIS1_EE12_M_check_lenEjPKc	@545
_ZNKSt6vectorIN5nsFTP13CFirewallTypeESaIS1_EE4sizeEv	@546
_ZNKSt6vectorIN5nsFTP13CFirewallTypeESaIS1_EE8max_sizeEv	@547
_ZNKSt6vectorINSt7__cxx1112basic_stringIcSt11char_traitsIcESaIcEEESaIS5_EE12_M_check_lenEjPKc	@548
_ZNKSt6vectorINSt7__cxx1112basic_stringIcSt11char_traitsIcESaIcEEESaIS5_EE3endEv	@549
_ZNKSt6vectorINSt7__cxx1112basic_stringIcSt11char_traitsIcESaIcEEESaIS5_EE4sizeEv	@550
_ZNKSt6vectorINSt7__cxx1112basic_stringIcSt11char_traitsIcESaIcEEESaIS5_EE5beginEv	@551
_ZNKSt6vectorINSt7__cxx1112basic_stringIcSt11char_traitsIcESaIcEEESaIS5_EE5emptyEv	@552
_ZNKSt6vectorINSt7__cxx1112basic_stringIcSt11char_traitsIcESaIcEEESaIS5_EE8max_sizeEv	@553
_ZNKSt6vectorIcSaIcEE4sizeEv	@554
_ZNKSt6vectorIcSaIcEE5beginEv	@555
_ZNKSt8_Rb_treeIN5nsFTP8CCommand12TCommandEnumESt4pairIKS2_N14nsSmartPointer6RCIPtrINS1_13CExtendedInfoEEEESt10_Select1stIS9_ESt4lessIS2_ESaIS9_EE11_Alloc_nodeclIS3_IS2_S8_EEEPSt13_Rb_tree_nodeIS9_EOT_	@556
_ZNKSt8_Rb_treeIPN5nsFTP10CFTPClient12TObserverSetES3_St9_IdentityIS3_ESt4lessIS3_ESaIS3_EE11_Alloc_nodeclIRKS3_EEPSt13_Rb_tree_nodeIS3_EOT_	@557
_ZNKSt8_Rb_treeIPN5nsFTP10CFTPClient12TObserverSetES3_St9_IdentityIS3_ESt4lessIS3_ESaIS3_EE3endEv	@558
_ZNKSt8_Rb_treeIPN5nsFTP10CFTPClient12TObserverSetES3_St9_IdentityIS3_ESt4lessIS3_ESaIS3_EE4sizeEv	@559
_ZNKSt8_Rb_treeIPN5nsFTP10CFTPClient13CNotificationES3_St9_IdentityIS3_ESt4lessIS3_ESaIS3_EE11_Alloc_nodeclIRKS3_EEPSt13_Rb_tree_nodeIS3_EOT_	@560
_ZNKSt8_Rb_treeIPN5nsFTP10CFTPClient13CNotificationES3_St9_IdentityIS3_ESt4lessIS3_ESaIS3_EE3endEv	@561
_ZNKSt8_Rb_treeIPN5nsFTP10CFTPClient13CNotificationES3_St9_IdentityIS3_ESt4lessIS3_ESaIS3_EE4sizeEv	@562
_ZNKSt8_Rb_treeIPN5nsFTP10CFTPClient13CNotificationES3_St9_IdentityIS3_ESt4lessIS3_ESaIS3_EE5beginEv	@563
_ZNKSt9_IdentityIPN5nsFTP10CFTPClient12TObserverSetEEclERKS3_	@564
_ZNKSt9_IdentityIPN5nsFTP10CFTPClient13CNotificationEEclERKS3_	@565
_ZNSaINSt7__cxx1112basic_stringIcSt11char_traitsIcESaIcEEEEC2Ev	@566
_ZNSaINSt7__cxx1112basic_stringIcSt11char_traitsIcESaIcEEEED2Ev	@567
_ZNSaIPNSt7__cxx1112basic_stringIcSt11char_traitsIcESaIcEEEEC1IS4_EERKSaIT_E	@568
_ZNSaIPNSt7__cxx1112basic_stringIcSt11char_traitsIcESaIcEEEED1Ev	@569
_ZNSaISt13_Rb_tree_nodeIPN5nsFTP10CFTPClient13CNotificationEEEC2Ev	@570
_ZNSaISt13_Rb_tree_nodeIPN5nsFTP10CFTPClient13CNotificationEEED2Ev	@571
_ZNSaISt13_Rb_tree_nodeISt4pairIKN5nsFTP8CCommand12TCommandEnumEN14nsSmartPointer6RCIPtrINS2_13CExtendedInfoEEEEEEC2Ev	@572
_ZNSaISt13_Rb_tree_nodeISt4pairIKN5nsFTP8CCommand12TCommandEnumEN14nsSmartPointer6RCIPtrINS2_13CExtendedInfoEEEEEED2Ev	@573
_ZNSt10shared_ptrIN5nsFTP10CFTPClient15IFileListParserEEC1INS0_14CFTPListParserEvEEPT_	@574
_ZNSt10shared_ptrIN5nsFTP10CFTPClient15IFileListParserEED1Ev	@575
_ZNSt10shared_ptrIN5nsFTP10CFTPClient15IFileListParserEEaSERKS3_	@576
_ZNSt10shared_ptrIN5nsFTP15CRepresentationEEC1Ev	@577
_ZNSt10shared_ptrIN5nsFTP15CRepresentationEED1Ev	@578
_ZNSt10shared_ptrIN8nsSocket15IBlockingSocketEEC1ERKS2_	@579
_ZNSt10shared_ptrIN8nsSocket15IBlockingSocketEEC1INS0_15CBlockingSocketEvEEPT_	@580
_ZNSt10shared_ptrIN8nsSocket15IBlockingSocketEEC1IS1_vEEPT_	@581
_ZNSt10shared_ptrIN8nsSocket15IBlockingSocketEED1Ev	@582
_ZNSt11_Deque_baseINSt7__cxx1112basic_stringIcSt11char_traitsIcESaIcEEESaIS5_EE11_Deque_implC1Ev	@583
_ZNSt11_Deque_baseINSt7__cxx1112basic_stringIcSt11char_traitsIcESaIcEEESaIS5_EE11_Deque_implD1Ev	@584
_ZNSt11_Deque_baseINSt7__cxx1112basic_stringIcSt11char_traitsIcESaIcEEESaIS5_EE15_M_allocate_mapEj	@585
_ZNSt11_Deque_baseINSt7__cxx1112basic_stringIcSt11char_traitsIcESaIcEEESaIS5_EE15_M_create_nodesEPPS5_S9_	@586
_ZNSt11_Deque_baseINSt7__cxx1112basic_stringIcSt11char_traitsIcESaIcEEESaIS5_EE16_M_allocate_nodeEv	@587
_ZNSt11_Deque_baseINSt7__cxx1112basic_stringIcSt11char_traitsIcESaIcEEESaIS5_EE16_M_destroy_nodesEPPS5_S9_	@588
_ZNSt11_Deque_baseINSt7__cxx1112basic_stringIcSt11char_traitsIcESaIcEEESaIS5_EE17_M_deallocate_mapEPPS5_j	@589
_ZNSt11_Deque_baseINSt7__cxx1112basic_stringIcSt11char_traitsIcESaIcEEESaIS5_EE17_M_initialize_mapEj	@590
_ZNSt11_Deque_baseINSt7__cxx1112basic_stringIcSt11char_traitsIcESaIcEEESaIS5_EE18_M_deallocate_nodeEPS5_	@591
_ZNSt11_Deque_baseINSt7__cxx1112basic_stringIcSt11char_traitsIcESaIcEEESaIS5_EE19_M_get_Tp_allocatorEv	@592
_ZNSt11_Deque_baseINSt7__cxx1112basic_stringIcSt11char_traitsIcESaIcEEESaIS5_EEC2Ev	@593
_ZNSt11_Deque_baseINSt7__cxx1112basic_stringIcSt11char_traitsIcESaIcEEESaIS5_EED2Ev	@594
_ZNSt11__copy_moveILb0ELb0ESt26random_access_iterator_tagE8__copy_mIPKcSt20back_insert_iteratorINSt7__cxx1112basic_stringIcSt11char_traitsIcESaIcEEEEEET0_T_SE_SD_	@595
_ZNSt11__copy_moveILb0ELb1ESt26random_access_iterator_tagE8__copy_mIPNSt7__cxx1112basic_stringIcSt11char_traitsIcESaIcEEEEEPT_PKSA_SD_SB_	@596
_ZNSt11__copy_moveILb0ELb1ESt26random_access_iterator_tagE8__copy_mIcEEPT_PKS3_S6_S4_	@597
_ZNSt11char_traitsIcE6lengthEPKc	@598
_ZNSt11char_traitsIcE7compareEPKcS2_j	@599
_ZNSt12_Destroy_auxILb0EE9__destroyIPN14nsSmartPointer6RCIPtrIN5nsFTP14CFTPFileStatusEEEEEvT_S8_	@600
_ZNSt12_Destroy_auxILb0EE9__destroyIPNSt7__cxx1112basic_stringIcSt11char_traitsIcESaIcEEEEEvT_S9_	@601
_ZNSt12_Destroy_auxILb1EE9__destroyIPN5nsFTP13CFirewallTypeEEEvT_S5_	@602
_ZNSt12_Destroy_auxILb1EE9__destroyIPcEEvT_S3_	@603
_ZNSt12_Vector_baseIN14nsSmartPointer6RCIPtrIN5nsFTP14CFTPFileStatusEEESaIS4_EE11_M_allocateEj	@604
_ZNSt12_Vector_baseIN14nsSmartPointer6RCIPtrIN5nsFTP14CFTPFileStatusEEESaIS4_EE13_M_deallocateEPS4_j	@605
_ZNSt12_Vector_baseIN14nsSmartPointer6RCIPtrIN5nsFTP14CFTPFileStatusEEESaIS4_EE19_M_get_Tp_allocatorEv	@606
_ZNSt12_Vector_baseIN5nsFTP13CFirewallTypeESaIS1_EE11_M_allocateEj	@607
_ZNSt12_Vector_baseIN5nsFTP13CFirewallTypeESaIS1_EE13_M_deallocateEPS1_j	@608
_ZNSt12_Vector_baseIN5nsFTP13CFirewallTypeESaIS1_EE19_M_get_Tp_allocatorEv	@609
_ZNSt12_Vector_baseINSt7__cxx1112basic_stringIcSt11char_traitsIcESaIcEEESaIS5_EE11_M_allocateEj	@610
_ZNSt12_Vector_baseINSt7__cxx1112basic_stringIcSt11char_traitsIcESaIcEEESaIS5_EE12_Vector_implC1Ev	@611
_ZNSt12_Vector_baseINSt7__cxx1112basic_stringIcSt11char_traitsIcESaIcEEESaIS5_EE12_Vector_implD1Ev	@612
_ZNSt12_Vector_baseINSt7__cxx1112basic_stringIcSt11char_traitsIcESaIcEEESaIS5_EE13_M_deallocateEPS5_j	@613
_ZNSt12_Vector_baseINSt7__cxx1112basic_stringIcSt11char_traitsIcESaIcEEESaIS5_EE19_M_get_Tp_allocatorEv	@614
_ZNSt12_Vector_baseINSt7__cxx1112basic_stringIcSt11char_traitsIcESaIcEEESaIS5_EEC2Ev	@615
_ZNSt12_Vector_baseINSt7__cxx1112basic_stringIcSt11char_traitsIcESaIcEEESaIS5_EED2Ev	@616
_ZNSt12_Vector_baseIcSaIcEE11_M_allocateEj	@617
_ZNSt12_Vector_baseIcSaIcEE12_Vector_implC1ERKS0_	@618
_ZNSt12_Vector_baseIcSaIcEE12_Vector_implD1Ev	@619
_ZNSt12_Vector_baseIcSaIcEE13_M_deallocateEPcj	@620
_ZNSt12_Vector_baseIcSaIcEE17_M_create_storageEj	@621
_ZNSt12_Vector_baseIcSaIcEE19_M_get_Tp_allocatorEv	@622
_ZNSt12_Vector_baseIcSaIcEEC2EjRKS0_	@623
_ZNSt12_Vector_baseIcSaIcEED2Ev	@624
_ZNSt12__shared_ptrIN5nsFTP10CFTPClient15IFileListParserELN9__gnu_cxx12_Lock_policyE2EE31_M_enable_shared_from_this_withINS0_14CFTPListParserES7_EENSt9enable_ifIXntsrNS5_15__has_esft_baseIT0_vEE5valueEvE4typeEPT_	@625
_ZNSt12__shared_ptrIN5nsFTP10CFTPClient15IFileListParserELN9__gnu_cxx12_Lock_policyE2EEC2INS0_14CFTPListParserEvEEPT_	@626
_ZNSt12__shared_ptrIN5nsFTP10CFTPClient15IFileListParserELN9__gnu_cxx12_Lock_policyE2EED2Ev	@627
_ZNSt12__shared_ptrIN5nsFTP10CFTPClient15IFileListParserELN9__gnu_cxx12_Lock_policyE2EEaSERKS5_	@628
_ZNSt12__shared_ptrIN5nsFTP15CRepresentationELN9__gnu_cxx12_Lock_policyE2EE31_M_enable_shared_from_this_withIS1_S1_EENSt9enable_ifIXntsrNS4_15__has_esft_baseIT0_vEE5valueEvE4typeEPT_	@629
_ZNSt12__shared_ptrIN5nsFTP15CRepresentationELN9__gnu_cxx12_Lock_policyE2EE4swapERS4_	@630
_ZNSt12__shared_ptrIN5nsFTP15CRepresentationELN9__gnu_cxx12_Lock_policyE2EE5resetEv	@631
_ZNSt12__shared_ptrIN5nsFTP15CRepresentationELN9__gnu_cxx12_Lock_policyE2EE5resetIS1_EENSt9enable_ifIXsrSt21__sp_is_constructibleIS1_T_E5valueEvE4typeEPS8_	@632
_ZNSt12__shared_ptrIN5nsFTP15CRepresentationELN9__gnu_cxx12_Lock_policyE2EEC1Ev	@633
_ZNSt12__shared_ptrIN5nsFTP15CRepresentationELN9__gnu_cxx12_Lock_policyE2EEC1IS1_vEEPT_	@634
_ZNSt12__shared_ptrIN5nsFTP15CRepresentationELN9__gnu_cxx12_Lock_policyE2EEC2Ev	@635
_ZNSt12__shared_ptrIN5nsFTP15CRepresentationELN9__gnu_cxx12_Lock_policyE2EED1Ev	@636
_ZNSt12__shared_ptrIN5nsFTP15CRepresentationELN9__gnu_cxx12_Lock_policyE2EED2Ev	@637
_ZNSt12__shared_ptrIN8nsSocket15IBlockingSocketELN9__gnu_cxx12_Lock_policyE2EE31_M_enable_shared_from_this_withINS0_15CBlockingSocketES6_EENSt9enable_ifIXntsrNS4_15__has_esft_baseIT0_vEE5valueEvE4typeEPT_	@638
_ZNSt12__shared_ptrIN8nsSocket15IBlockingSocketELN9__gnu_cxx12_Lock_policyE2EE31_M_enable_shared_from_this_withIS1_S1_EENSt9enable_ifIXntsrNS4_15__has_esft_baseIT0_vEE5valueEvE4typeEPT_	@639
_ZNSt12__shared_ptrIN8nsSocket15IBlockingSocketELN9__gnu_cxx12_Lock_policyE2EEC2ERKS4_	@640
_ZNSt12__shared_ptrIN8nsSocket15IBlockingSocketELN9__gnu_cxx12_Lock_policyE2EEC2INS0_15CBlockingSocketEvEEPT_	@641
_ZNSt12__shared_ptrIN8nsSocket15IBlockingSocketELN9__gnu_cxx12_Lock_policyE2EEC2IS1_vEEPT_	@642
_ZNSt12__shared_ptrIN8nsSocket15IBlockingSocketELN9__gnu_cxx12_Lock_policyE2EED2Ev	@643
_ZNSt13_Rb_tree_nodeIPN5nsFTP10CFTPClient12TObserverSetEE9_M_valptrEv	@644
_ZNSt13_Rb_tree_nodeIPN5nsFTP10CFTPClient13CNotificationEE9_M_valptrEv	@645
_ZNSt13_Rb_tree_nodeISt4pairIKN5nsFTP8CCommand12TCommandEnumEN14nsSmartPointer6RCIPtrINS2_13CExtendedInfoEEEEE9_M_valptrEv	@646
_ZNSt13move_iteratorIPNSt7__cxx1112basic_stringIcSt11char_traitsIcESaIcEEEEC1ES6_	@647
_ZNSt13move_iteratorIPNSt7__cxx1112basic_stringIcSt11char_traitsIcESaIcEEEEppEv	@648
_ZNSt14__shared_countILN9__gnu_cxx12_Lock_policyE2EE7_M_swapERS2_	@649
_ZNSt14__shared_countILN9__gnu_cxx12_Lock_policyE2EEC1ERKS2_	@650
_ZNSt14__shared_countILN9__gnu_cxx12_Lock_policyE2EEC1Ev	@651
_ZNSt14__shared_countILN9__gnu_cxx12_Lock_policyE2EEC1IPN5nsFTP14CFTPListParserEEET_	@652
_ZNSt14__shared_countILN9__gnu_cxx12_Lock_policyE2EEC1IPN5nsFTP14CFTPListParserEEET_St17integral_constantIbLb0EE	@653
_ZNSt14__shared_countILN9__gnu_cxx12_Lock_policyE2EEC1IPN5nsFTP15CRepresentationEEET_	@654
_ZNSt14__shared_countILN9__gnu_cxx12_Lock_policyE2EEC1IPN5nsFTP15CRepresentationEEET_St17integral_constantIbLb0EE	@655
_ZNSt14__shared_countILN9__gnu_cxx12_Lock_policyE2EEC1IPN8nsSocket15CBlockingSocketEEET_	@656
_ZNSt14__shared_countILN9__gnu_cxx12_Lock_policyE2EEC1IPN8nsSocket15CBlockingSocketEEET_St17integral_constantIbLb0EE	@657
_ZNSt14__shared_countILN9__gnu_cxx12_Lock_policyE2EEC1IPN8nsSocket15IBlockingSocketEEET_	@658
_ZNSt14__shared_countILN9__gnu_cxx12_Lock_policyE2EEC1IPN8nsSocket15IBlockingSocketEEET_St17integral_constantIbLb0EE	@659
_ZNSt14__shared_countILN9__gnu_cxx12_Lock_policyE2EED1Ev	@660
_ZNSt14__shared_countILN9__gnu_cxx12_Lock_policyE2EEaSERKS2_	@661
_ZNSt15_Deque_iteratorINSt7__cxx1112basic_stringIcSt11char_traitsIcESaIcEEERS5_PS5_E11_M_set_nodeEPS7_	@662
_ZNSt15_Deque_iteratorINSt7__cxx1112basic_stringIcSt11char_traitsIcESaIcEEERS5_PS5_E14_S_buffer_sizeEv	@663
_ZNSt15_Deque_iteratorINSt7__cxx1112basic_stringIcSt11char_traitsIcESaIcEEERS5_PS5_EC1ERKS8_	@664
_ZNSt15_Deque_iteratorINSt7__cxx1112basic_stringIcSt11char_traitsIcESaIcEEERS5_PS5_EC1Ev	@665
_ZNSt15_Rb_tree_header8_M_resetEv	@666
_ZNSt15_Rb_tree_headerC2Ev	@667
_ZNSt15_Sp_counted_ptrIPN5nsFTP14CFTPListParserELN9__gnu_cxx12_Lock_policyE2EE10_M_destroyEv	@668
_ZNSt15_Sp_counted_ptrIPN5nsFTP14CFTPListParserELN9__gnu_cxx12_Lock_policyE2EE10_M_disposeEv	@669
_ZNSt15_Sp_counted_ptrIPN5nsFTP14CFTPListParserELN9__gnu_cxx12_Lock_policyE2EE14_M_get_deleterERKSt9type_info	@670
_ZNSt15_Sp_counted_ptrIPN5nsFTP14CFTPListParserELN9__gnu_cxx12_Lock_policyE2EEC1ES2_	@671
_ZNSt15_Sp_counted_ptrIPN5nsFTP14CFTPListParserELN9__gnu_cxx12_Lock_policyE2EED0Ev	@672
_ZNSt15_Sp_counted_ptrIPN5nsFTP14CFTPListParserELN9__gnu_cxx12_Lock_policyE2EED1Ev	@673
_ZNSt15_Sp_counted_ptrIPN5nsFTP15CRepresentationELN9__gnu_cxx12_Lock_policyE2EE10_M_destroyEv	@674
_ZNSt15_Sp_counted_ptrIPN5nsFTP15CRepresentationELN9__gnu_cxx12_Lock_policyE2EE10_M_disposeEv	@675
_ZNSt15_Sp_counted_ptrIPN5nsFTP15CRepresentationELN9__gnu_cxx12_Lock_policyE2EE14_M_get_deleterERKSt9type_info	@676
_ZNSt15_Sp_counted_ptrIPN5nsFTP15CRepresentationELN9__gnu_cxx12_Lock_policyE2EEC1ES2_	@677
_ZNSt15_Sp_counted_ptrIPN5nsFTP15CRepresentationELN9__gnu_cxx12_Lock_policyE2EED0Ev	@678
_ZNSt15_Sp_counted_ptrIPN5nsFTP15CRepresentationELN9__gnu_cxx12_Lock_policyE2EED1Ev	@679
_ZNSt15_Sp_counted_ptrIPN8nsSocket15CBlockingSocketELN9__gnu_cxx12_Lock_policyE2EE10_M_destroyEv	@680
_ZNSt15_Sp_counted_ptrIPN8nsSocket15CBlockingSocketELN9__gnu_cxx12_Lock_policyE2EE10_M_disposeEv	@681
_ZNSt15_Sp_counted_ptrIPN8nsSocket15CBlockingSocketELN9__gnu_cxx12_Lock_policyE2EE14_M_get_deleterERKSt9type_info	@682
_ZNSt15_Sp_counted_ptrIPN8nsSocket15CBlockingSocketELN9__gnu_cxx12_Lock_policyE2EEC1ES2_	@683
_ZNSt15_Sp_counted_ptrIPN8nsSocket15CBlockingSocketELN9__gnu_cxx12_Lock_policyE2EED0Ev	@684
_ZNSt15_Sp_counted_ptrIPN8nsSocket15CBlockingSocketELN9__gnu_cxx12_Lock_policyE2EED1Ev	@685
_ZNSt15_Sp_counted_ptrIPN8nsSocket15IBlockingSocketELN9__gnu_cxx12_Lock_policyE2EE10_M_destroyEv	@686
_ZNSt15_Sp_counted_ptrIPN8nsSocket15IBlockingSocketELN9__gnu_cxx12_Lock_policyE2EE10_M_disposeEv	@687
_ZNSt15_Sp_counted_ptrIPN8nsSocket15IBlockingSocketELN9__gnu_cxx12_Lock_policyE2EE14_M_get_deleterERKSt9type_info	@688
_ZNSt15_Sp_counted_ptrIPN8nsSocket15IBlockingSocketELN9__gnu_cxx12_Lock_policyE2EEC1ES2_	@689
_ZNSt15_Sp_counted_ptrIPN8nsSocket15IBlockingSocketELN9__gnu_cxx12_Lock_policyE2EED0Ev	@690
_ZNSt15_Sp_counted_ptrIPN8nsSocket15IBlockingSocketELN9__gnu_cxx12_Lock_policyE2EED1Ev	@691
_ZNSt16_Sp_counted_baseILN9__gnu_cxx12_Lock_policyE2EE10_M_destroyEv	@692
_ZNSt16_Sp_counted_baseILN9__gnu_cxx12_Lock_policyE2EE10_M_releaseEv	@693
_ZNSt16_Sp_counted_baseILN9__gnu_cxx12_Lock_policyE2EE15_M_add_ref_copyEv	@694
_ZNSt16_Sp_counted_baseILN9__gnu_cxx12_Lock_policyE2EEC2Ev	@695
_ZNSt16_Sp_counted_baseILN9__gnu_cxx12_Lock_policyE2EED2Ev	@696
_ZNSt16allocator_traitsISaIN14nsSmartPointer6RCIPtrIN5nsFTP14CFTPFileStatusEEEEE10deallocateERS5_PS4_j	@697
_ZNSt16allocator_traitsISaIN14nsSmartPointer6RCIPtrIN5nsFTP14CFTPFileStatusEEEEE7destroyIS4_EEvRS5_PT_	@698
_ZNSt16allocator_traitsISaIN14nsSmartPointer6RCIPtrIN5nsFTP14CFTPFileStatusEEEEE8allocateERS5_j	@699
_ZNSt16allocator_traitsISaIN14nsSmartPointer6RCIPtrIN5nsFTP14CFTPFileStatusEEEEE8max_sizeERKS5_	@700
_ZNSt16allocator_traitsISaIN14nsSmartPointer6RCIPtrIN5nsFTP14CFTPFileStatusEEEEE9constructIS4_JRKS4_EEEvRS5_PT_DpOT0_	@701
_ZNSt16allocator_traitsISaIN5nsFTP13CFirewallTypeEEE10deallocateERS2_PS1_j	@702
_ZNSt16allocator_traitsISaIN5nsFTP13CFirewallTypeEEE8allocateERS2_j	@703
_ZNSt16allocator_traitsISaIN5nsFTP13CFirewallTypeEEE8max_sizeERKS2_	@704
_ZNSt16allocator_traitsISaINSt7__cxx1112basic_stringIcSt11char_traitsIcESaIcEEEEE10deallocateERS6_PS5_j	@705
_ZNSt16allocator_traitsISaINSt7__cxx1112basic_stringIcSt11char_traitsIcESaIcEEEEE7destroyIS5_EEvRS6_PT_	@706
_ZNSt16allocator_traitsISaINSt7__cxx1112basic_stringIcSt11char_traitsIcESaIcEEEEE8allocateERS6_j	@707
_ZNSt16allocator_traitsISaINSt7__cxx1112basic_stringIcSt11char_traitsIcESaIcEEEEE8max_sizeERKS6_	@708
_ZNSt16allocator_traitsISaINSt7__cxx1112basic_stringIcSt11char_traitsIcESaIcEEEEE9constructIS5_JRKS5_EEEvRS6_PT_DpOT0_	@709
_ZNSt16allocator_traitsISaINSt7__cxx1112basic_stringIcSt11char_traitsIcESaIcEEEEE9constructIS5_JS5_EEEvRS6_PT_DpOT0_	@710
_ZNSt16allocator_traitsISaIPNSt7__cxx1112basic_stringIcSt11char_traitsIcESaIcEEEEE10deallocateERS7_PS6_j	@711
_ZNSt16allocator_traitsISaIPNSt7__cxx1112basic_stringIcSt11char_traitsIcESaIcEEEEE8allocateERS7_j	@712
_ZNSt16allocator_traitsISaISt13_Rb_tree_nodeIPN5nsFTP10CFTPClient12TObserverSetEEEE10deallocateERS6_PS5_j	@713
_ZNSt16allocator_traitsISaISt13_Rb_tree_nodeIPN5nsFTP10CFTPClient12TObserverSetEEEE7destroyIS4_EEvRS6_PT_	@714
_ZNSt16allocator_traitsISaISt13_Rb_tree_nodeIPN5nsFTP10CFTPClient12TObserverSetEEEE8allocateERS6_j	@715
_ZNSt16allocator_traitsISaISt13_Rb_tree_nodeIPN5nsFTP10CFTPClient12TObserverSetEEEE9constructIS4_JRKS4_EEEvRS6_PT_DpOT0_	@716
_ZNSt16allocator_traitsISaISt13_Rb_tree_nodeIPN5nsFTP10CFTPClient13CNotificationEEEE10deallocateERS6_PS5_j	@717
_ZNSt16allocator_traitsISaISt13_Rb_tree_nodeIPN5nsFTP10CFTPClient13CNotificationEEEE7destroyIS4_EEvRS6_PT_	@718
_ZNSt16allocator_traitsISaISt13_Rb_tree_nodeIPN5nsFTP10CFTPClient13CNotificationEEEE8allocateERS6_j	@719
_ZNSt16allocator_traitsISaISt13_Rb_tree_nodeIPN5nsFTP10CFTPClient13CNotificationEEEE9constructIS4_JRKS4_EEEvRS6_PT_DpOT0_	@720
_ZNSt16allocator_traitsISaISt13_Rb_tree_nodeISt4pairIKN5nsFTP8CCommand12TCommandEnumEN14nsSmartPointer6RCIPtrINS3_13CExtendedInfoEEEEEEE10deallocateERSC_PSB_j	@721
_ZNSt16allocator_traitsISaISt13_Rb_tree_nodeISt4pairIKN5nsFTP8CCommand12TCommandEnumEN14nsSmartPointer6RCIPtrINS3_13CExtendedInfoEEEEEEE7destroyISA_EEvRSC_PT_	@722
_ZNSt16allocator_traitsISaISt13_Rb_tree_nodeISt4pairIKN5nsFTP8CCommand12TCommandEnumEN14nsSmartPointer6RCIPtrINS3_13CExtendedInfoEEEEEEE8allocateERSC_j	@723
_ZNSt16allocator_traitsISaISt13_Rb_tree_nodeISt4pairIKN5nsFTP8CCommand12TCommandEnumEN14nsSmartPointer6RCIPtrINS3_13CExtendedInfoEEEEEEE9constructISA_JS1_IS4_S9_EEEEvRSC_PT_DpOT0_	@724
_ZNSt16allocator_traitsISaIcEE10deallocateERS0_Pcj	@725
_ZNSt16allocator_traitsISaIcEE8allocateERS0_j	@726
_ZNSt17_Rb_tree_iteratorIPN5nsFTP10CFTPClient12TObserverSetEEC1EPSt18_Rb_tree_node_base	@727
_ZNSt17_Rb_tree_iteratorIPN5nsFTP10CFTPClient12TObserverSetEEmmEv	@728
_ZNSt17_Rb_tree_iteratorIPN5nsFTP10CFTPClient13CNotificationEEC1EPSt18_Rb_tree_node_base	@729
_ZNSt17_Rb_tree_iteratorIPN5nsFTP10CFTPClient13CNotificationEEmmEv	@730
_ZNSt17_Rb_tree_iteratorISt4pairIKN5nsFTP8CCommand12TCommandEnumEN14nsSmartPointer6RCIPtrINS2_13CExtendedInfoEEEEEC1EPSt18_Rb_tree_node_base	@731
_ZNSt17_Rb_tree_iteratorISt4pairIKN5nsFTP8CCommand12TCommandEnumEN14nsSmartPointer6RCIPtrINS2_13CExtendedInfoEEEEEmmEv	@732
_ZNSt20_Rb_tree_key_compareISt4lessIN5nsFTP8CCommand12TCommandEnumEEEC2Ev	@733
_ZNSt20_Rb_tree_key_compareISt4lessIPN5nsFTP10CFTPClient13CNotificationEEEC2Ev	@734
_ZNSt20__copy_move_backwardILb0ELb1ESt26random_access_iterator_tagE13__copy_move_bIPNSt7__cxx1112basic_stringIcSt11char_traitsIcESaIcEEEEEPT_PKSA_SD_SB_	@735
_ZNSt20__uninitialized_copyILb0EE13__uninit_copyIPKN14nsSmartPointer6RCIPtrIN5nsFTP14CFTPFileStatusEEEPS6_EET0_T_SB_SA_	@736
_ZNSt20__uninitialized_copyILb0EE13__uninit_copyIPKN5nsFTP13CFirewallTypeEPS3_EET0_T_S8_S7_	@737
_ZNSt20__uninitialized_copyILb0EE13__uninit_copyISt13move_iteratorIPNSt7__cxx1112basic_stringIcSt11char_traitsIcESaIcEEEES9_EET0_T_SC_SB_	@738
_ZNSt20back_insert_iteratorINSt7__cxx1112basic_stringIcSt11char_traitsIcESaIcEEEEC1ERS5_	@739
_ZNSt20back_insert_iteratorINSt7__cxx1112basic_stringIcSt11char_traitsIcESaIcEEEEaSERKc	@740
_ZNSt20back_insert_iteratorINSt7__cxx1112basic_stringIcSt11char_traitsIcESaIcEEEEdeEv	@741
_ZNSt20back_insert_iteratorINSt7__cxx1112basic_stringIcSt11char_traitsIcESaIcEEEEppEv	@742
_ZNSt23_Rb_tree_const_iteratorIPN5nsFTP10CFTPClient12TObserverSetEEC1EPKSt18_Rb_tree_node_base	@743
_ZNSt23_Rb_tree_const_iteratorIPN5nsFTP10CFTPClient12TObserverSetEEC1ERKSt17_Rb_tree_iteratorIS3_E	@744
_ZNSt23_Rb_tree_const_iteratorIPN5nsFTP10CFTPClient12TObserverSetEEppEi	@745
_ZNSt23_Rb_tree_const_iteratorIPN5nsFTP10CFTPClient13CNotificationEEC1EPKSt18_Rb_tree_node_base	@746
_ZNSt23_Rb_tree_const_iteratorIPN5nsFTP10CFTPClient13CNotificationEEC1ERKSt17_Rb_tree_iteratorIS3_E	@747
_ZNSt23_Rb_tree_const_iteratorIPN5nsFTP10CFTPClient13CNotificationEEC1Ev	@748
_ZNSt23_Rb_tree_const_iteratorIPN5nsFTP10CFTPClient13CNotificationEEppEi	@749
_ZNSt23_Rb_tree_const_iteratorISt4pairIKN5nsFTP8CCommand12TCommandEnumEN14nsSmartPointer6RCIPtrINS2_13CExtendedInfoEEEEEC1ERKSt17_Rb_tree_iteratorIS9_E	@750
_ZNSt27__uninitialized_default_n_1ILb0EE18__uninit_default_nIPN5nsFTP13CFirewallTypeEjEET_S5_T0_	@751
_ZNSt27__uninitialized_default_n_1ILb1EE18__uninit_default_nIPcjEET_S3_T0_	@752
_ZNSt3mapIN5nsFTP8CCommand12TCommandEnumEN14nsSmartPointer6RCIPtrINS1_13CExtendedInfoEEESt4lessIS2_ESaISt4pairIKS2_S6_EEE3endEv	@753
_ZNSt3mapIN5nsFTP8CCommand12TCommandEnumEN14nsSmartPointer6RCIPtrINS1_13CExtendedInfoEEESt4lessIS2_ESaISt4pairIKS2_S6_EEE4findERSA_	@754
_ZNSt3mapIN5nsFTP8CCommand12TCommandEnumEN14nsSmartPointer6RCIPtrINS1_13CExtendedInfoEEESt4lessIS2_ESaISt4pairIKS2_S6_EEE6insertIS9_IS2_S6_EvEES9_ISt17_Rb_tree_iteratorISB_EbEOT_	@755
_ZNSt3mapIN5nsFTP8CCommand12TCommandEnumEN14nsSmartPointer6RCIPtrINS1_13CExtendedInfoEEESt4lessIS2_ESaISt4pairIKS2_S6_EEEC2Ev	@756
_ZNSt3mapIN5nsFTP8CCommand12TCommandEnumEN14nsSmartPointer6RCIPtrINS1_13CExtendedInfoEEESt4lessIS2_ESaISt4pairIKS2_S6_EEED2Ev	@757
_ZNSt3setIPN5nsFTP10CFTPClient12TObserverSetESt4lessIS3_ESaIS3_EE4findERKS3_	@758
_ZNSt3setIPN5nsFTP10CFTPClient12TObserverSetESt4lessIS3_ESaIS3_EE5eraseERKS3_	@759
_ZNSt3setIPN5nsFTP10CFTPClient12TObserverSetESt4lessIS3_ESaIS3_EE6insertERKS3_	@760
_ZNSt3setIPN5nsFTP10CFTPClient13CNotificationESt4lessIS3_ESaIS3_EE4findERKS3_	@761
_ZNSt3setIPN5nsFTP10CFTPClient13CNotificationESt4lessIS3_ESaIS3_EE5eraseERKS3_	@762
_ZNSt3setIPN5nsFTP10CFTPClient13CNotificationESt4lessIS3_ESaIS3_EE6insertERKS3_	@763
_ZNSt3setIPN5nsFTP10CFTPClient13CNotificationESt4lessIS3_ESaIS3_EEC2Ev	@764
_ZNSt3setIPN5nsFTP10CFTPClient13CNotificationESt4lessIS3_ESaIS3_EED2Ev	@765
_ZNSt4pairIKN5nsFTP8CCommand12TCommandEnumEN14nsSmartPointer6RCIPtrINS1_13CExtendedInfoEEEEC1IS2_S7_Lb1EEEOS_IT_T0_E	@766
_ZNSt4pairIKN5nsFTP8CCommand12TCommandEnumEN14nsSmartPointer6RCIPtrINS1_13CExtendedInfoEEEED1Ev	@767
_ZNSt4pairIN5nsFTP8CCommand12TCommandEnumEN14nsSmartPointer6RCIPtrINS1_13CExtendedInfoEEEEC1IRS2_S6_Lb1EEEOT_OT0_	@768
_ZNSt4pairIN5nsFTP8CCommand12TCommandEnumEN14nsSmartPointer6RCIPtrINS1_13CExtendedInfoEEEED1Ev	@769
_ZNSt4pairIPSt18_Rb_tree_node_baseS1_EC1IRPSt13_Rb_tree_nodeIPN5nsFTP10CFTPClient12TObserverSetEERS1_Lb1EEEOT_OT0_	@770
_ZNSt4pairIPSt18_Rb_tree_node_baseS1_EC1IRPSt13_Rb_tree_nodeIPN5nsFTP10CFTPClient13CNotificationEERS1_Lb1EEEOT_OT0_	@771
_ZNSt4pairIPSt18_Rb_tree_node_baseS1_EC1IRPSt13_Rb_tree_nodeIS_IKN5nsFTP8CCommand12TCommandEnumEN14nsSmartPointer6RCIPtrINS6_13CExtendedInfoEEEEERS1_Lb1EEEOT_OT0_	@772
_ZNSt4pairIPSt18_Rb_tree_node_baseS1_EC1IRS1_Lb1EEEOT_RKS1_	@773
_ZNSt4pairISt17_Rb_tree_iteratorIPN5nsFTP10CFTPClient12TObserverSetEES5_EC1IS5_S5_Lb1EEEOT_OT0_	@774
_ZNSt4pairISt17_Rb_tree_iteratorIPN5nsFTP10CFTPClient12TObserverSetEEbEC1IS5_bLb1EEEOT_OT0_	@775
_ZNSt4pairISt17_Rb_tree_iteratorIPN5nsFTP10CFTPClient13CNotificationEES5_EC1IS5_S5_Lb1EEEOT_OT0_	@776
_ZNSt4pairISt17_Rb_tree_iteratorIPN5nsFTP10CFTPClient13CNotificationEEbEC1IS5_bLb1EEEOT_OT0_	@777
_ZNSt4pairISt17_Rb_tree_iteratorIS_IKN5nsFTP8CCommand12TCommandEnumEN14nsSmartPointer6RCIPtrINS2_13CExtendedInfoEEEEEbEC1ISA_bLb1EEEOT_OT0_	@778
_ZNSt4pairISt23_Rb_tree_const_iteratorIPN5nsFTP10CFTPClient12TObserverSetEEbEC1IRSt17_Rb_tree_iteratorIS4_ERbLb1EEEOT_OT0_	@779
_ZNSt4pairISt23_Rb_tree_const_iteratorIPN5nsFTP10CFTPClient13CNotificationEEbEC1IRSt17_Rb_tree_iteratorIS4_ERbLb1EEEOT_OT0_	@780
_ZNSt5dequeINSt7__cxx1112basic_stringIcSt11char_traitsIcESaIcEEESaIS5_EE12emplace_backIJS5_EEEvDpOT_	@781
_ZNSt5dequeINSt7__cxx1112basic_stringIcSt11char_traitsIcESaIcEEESaIS5_EE14_S_buffer_sizeEv	@782
_ZNSt5dequeINSt7__cxx1112basic_stringIcSt11char_traitsIcESaIcEEESaIS5_EE15_M_destroy_dataESt15_Deque_iteratorIS5_RS5_PS5_ESB_RKS6_	@783
_ZNSt5dequeINSt7__cxx1112basic_stringIcSt11char_traitsIcESaIcEEESaIS5_EE16_M_pop_front_auxEv	@784
_ZNSt5dequeINSt7__cxx1112basic_stringIcSt11char_traitsIcESaIcEEESaIS5_EE16_M_push_back_auxIJRKS5_EEEvDpOT_	@785
_ZNSt5dequeINSt7__cxx1112basic_stringIcSt11char_traitsIcESaIcEEESaIS5_EE16_M_push_back_auxIJS5_EEEvDpOT_	@786
_ZNSt5dequeINSt7__cxx1112basic_stringIcSt11char_traitsIcESaIcEEESaIS5_EE17_M_reallocate_mapEjb	@787
_ZNSt5dequeINSt7__cxx1112basic_stringIcSt11char_traitsIcESaIcEEESaIS5_EE19_M_destroy_data_auxESt15_Deque_iteratorIS5_RS5_PS5_ESB_	@788
_ZNSt5dequeINSt7__cxx1112basic_stringIcSt11char_traitsIcESaIcEEESaIS5_EE22_M_reserve_map_at_backEj	@789
_ZNSt5dequeINSt7__cxx1112basic_stringIcSt11char_traitsIcESaIcEEESaIS5_EE3endEv	@790
_ZNSt5dequeINSt7__cxx1112basic_stringIcSt11char_traitsIcESaIcEEESaIS5_EE5beginEv	@791
_ZNSt5dequeINSt7__cxx1112basic_stringIcSt11char_traitsIcESaIcEEESaIS5_EE5frontEv	@792
_ZNSt5dequeINSt7__cxx1112basic_stringIcSt11char_traitsIcESaIcEEESaIS5_EE9pop_frontEv	@793
_ZNSt5dequeINSt7__cxx1112basic_stringIcSt11char_traitsIcESaIcEEESaIS5_EE9push_backEOS5_	@794
_ZNSt5dequeINSt7__cxx1112basic_stringIcSt11char_traitsIcESaIcEEESaIS5_EE9push_backERKS5_	@795
_ZNSt5dequeINSt7__cxx1112basic_stringIcSt11char_traitsIcESaIcEEESaIS5_EEC1Ev	@796
_ZNSt5dequeINSt7__cxx1112basic_stringIcSt11char_traitsIcESaIcEEESaIS5_EED1Ev	@797
_ZNSt5queueINSt7__cxx1112basic_stringIcSt11char_traitsIcESaIcEEESt5dequeIS5_SaIS5_EEE3popEv	@798
_ZNSt5queueINSt7__cxx1112basic_stringIcSt11char_traitsIcESaIcEEESt5dequeIS5_SaIS5_EEE4pushEOS5_	@799
_ZNSt5queueINSt7__cxx1112basic_stringIcSt11char_traitsIcESaIcEEESt5dequeIS5_SaIS5_EEE4pushERKS5_	@800
_ZNSt5queueINSt7__cxx1112basic_stringIcSt11char_traitsIcESaIcEEESt5dequeIS5_SaIS5_EEE5frontEv	@801
_ZNSt5queueINSt7__cxx1112basic_stringIcSt11char_traitsIcESaIcEEESt5dequeIS5_SaIS5_EEEC1IS8_vEEv	@802
_ZNSt5queueINSt7__cxx1112basic_stringIcSt11char_traitsIcESaIcEEESt5dequeIS5_SaIS5_EEED1Ev	@803
_ZNSt6vectorIN14nsSmartPointer6RCIPtrIN5nsFTP14CFTPFileStatusEEESaIS4_EE15_M_erase_at_endEPS4_	@804
_ZNSt6vectorIN14nsSmartPointer6RCIPtrIN5nsFTP14CFTPFileStatusEEESaIS4_EE17_M_realloc_insertIJRKS4_EEEvN9__gnu_cxx17__normal_iteratorIPS4_S6_EEDpOT_	@805
_ZNSt6vectorIN14nsSmartPointer6RCIPtrIN5nsFTP14CFTPFileStatusEEESaIS4_EE3endEv	@806
_ZNSt6vectorIN14nsSmartPointer6RCIPtrIN5nsFTP14CFTPFileStatusEEESaIS4_EE5beginEv	@807
_ZNSt6vectorIN14nsSmartPointer6RCIPtrIN5nsFTP14CFTPFileStatusEEESaIS4_EE5clearEv	@808
_ZNSt6vectorIN14nsSmartPointer6RCIPtrIN5nsFTP14CFTPFileStatusEEESaIS4_EE9push_backERKS4_	@809
_ZNSt6vectorIN5nsFTP13CFirewallTypeESaIS1_EE15_M_erase_at_endEPS1_	@810
_ZNSt6vectorIN5nsFTP13CFirewallTypeESaIS1_EE17_M_default_appendEj	@811
_ZNSt6vectorIN5nsFTP13CFirewallTypeESaIS1_EE6resizeEj	@812
_ZNSt6vectorIN5nsFTP13CFirewallTypeESaIS1_EEixEj	@813
_ZNSt6vectorINSt7__cxx1112basic_stringIcSt11char_traitsIcESaIcEEESaIS5_EE12emplace_backIJS5_EEEvDpOT_	@814
_ZNSt6vectorINSt7__cxx1112basic_stringIcSt11char_traitsIcESaIcEEESaIS5_EE15_M_erase_at_endEPS5_	@815
_ZNSt6vectorINSt7__cxx1112basic_stringIcSt11char_traitsIcESaIcEEESaIS5_EE17_M_realloc_insertIJRKS5_EEEvN9__gnu_cxx17__normal_iteratorIPS5_S7_EEDpOT_	@816
_ZNSt6vectorINSt7__cxx1112basic_stringIcSt11char_traitsIcESaIcEEESaIS5_EE17_M_realloc_insertIJS5_EEEvN9__gnu_cxx17__normal_iteratorIPS5_S7_EEDpOT_	@817
_ZNSt6vectorINSt7__cxx1112basic_stringIcSt11char_traitsIcESaIcEEESaIS5_EE3endEv	@818
_ZNSt6vectorINSt7__cxx1112basic_stringIcSt11char_traitsIcESaIcEEESaIS5_EE5beginEv	@819
_ZNSt6vectorINSt7__cxx1112basic_stringIcSt11char_traitsIcESaIcEEESaIS5_EE5clearEv	@820
_ZNSt6vectorINSt7__cxx1112basic_stringIcSt11char_traitsIcESaIcEEESaIS5_EE9push_backEOS5_	@821
_ZNSt6vectorINSt7__cxx1112basic_stringIcSt11char_traitsIcESaIcEEESaIS5_EE9push_backERKS5_	@822
_ZNSt6vectorINSt7__cxx1112basic_stringIcSt11char_traitsIcESaIcEEESaIS5_EEC2Ev	@823
_ZNSt6vectorINSt7__cxx1112basic_stringIcSt11char_traitsIcESaIcEEESaIS5_EED2Ev	@824
_ZNSt6vectorIcSaIcEE21_M_default_initializeEj	@825
_ZNSt6vectorIcSaIcEE5beginEv	@826
_ZNSt6vectorIcSaIcEE5frontEv	@827
_ZNSt6vectorIcSaIcEEC1EjRKS0_	@828
_ZNSt6vectorIcSaIcEED1Ev	@829
_ZNSt6vectorIcSaIcEEixEj	@830
_ZNSt7__cxx1112basic_stringIcSt11char_traitsIcESaIcEE6assignIN9__gnu_cxx17__normal_iteratorIPcS4_EEvEERS4_T_SB_	@831
_ZNSt8_Rb_treeIN5nsFTP8CCommand12TCommandEnumESt4pairIKS2_N14nsSmartPointer6RCIPtrINS1_13CExtendedInfoEEEESt10_Select1stIS9_ESt4lessIS2_ESaIS9_EE10_M_insert_IS3_IS2_S8_ENSF_11_Alloc_nodeEEESt17_Rb_tree_iteratorIS9_EPSt18_Rb_tree_node_baseSM_OT_RT0_	@832
_ZNSt8_Rb_treeIN5nsFTP8CCommand12TCommandEnumESt4pairIKS2_N14nsSmartPointer6RCIPtrINS1_13CExtendedInfoEEEESt10_Select1stIS9_ESt4lessIS2_ESaIS9_EE11_Alloc_nodeC1ERSF_	@833
_ZNSt8_Rb_treeIN5nsFTP8CCommand12TCommandEnumESt4pairIKS2_N14nsSmartPointer6RCIPtrINS1_13CExtendedInfoEEEESt10_Select1stIS9_ESt4lessIS2_ESaIS9_EE11_M_get_nodeEv	@834
_ZNSt8_Rb_treeIN5nsFTP8CCommand12TCommandEnumESt4pairIKS2_N14nsSmartPointer6RCIPtrINS1_13CExtendedInfoEEEESt10_Select1stIS9_ESt4lessIS2_ESaIS9_EE11_M_put_nodeEPSt13_Rb_tree_nodeIS9_E	@835
_ZNSt8_Rb_treeIN5nsFTP8CCommand12TCommandEnumESt4pairIKS2_N14nsSmartPointer6RCIPtrINS1_13CExtendedInfoEEEESt10_Select1stIS9_ESt4lessIS2_ESaIS9_EE12_M_drop_nodeEPSt13_Rb_tree_nodeIS9_E	@836
_ZNSt8_Rb_treeIN5nsFTP8CCommand12TCommandEnumESt4pairIKS2_N14nsSmartPointer6RCIPtrINS1_13CExtendedInfoEEEESt10_Select1stIS9_ESt4lessIS2_ESaIS9_EE13_Rb_tree_implISD_Lb1EEC1Ev	@837
_ZNSt8_Rb_treeIN5nsFTP8CCommand12TCommandEnumESt4pairIKS2_N14nsSmartPointer6RCIPtrINS1_13CExtendedInfoEEEESt10_Select1stIS9_ESt4lessIS2_ESaIS9_EE13_Rb_tree_implISD_Lb1EED1Ev	@838
_ZNSt8_Rb_treeIN5nsFTP8CCommand12TCommandEnumESt4pairIKS2_N14nsSmartPointer6RCIPtrINS1_13CExtendedInfoEEEESt10_Select1stIS9_ESt4lessIS2_ESaIS9_EE14_M_create_nodeIJS3_IS2_S8_EEEEPSt13_Rb_tree_nodeIS9_EDpOT_	@839
_ZNSt8_Rb_treeIN5nsFTP8CCommand12TCommandEnumESt4pairIKS2_N14nsSmartPointer6RCIPtrINS1_13CExtendedInfoEEEESt10_Select1stIS9_ESt4lessIS2_ESaIS9_EE14_M_lower_boundEPSt13_Rb_tree_nodeIS9_EPSt18_Rb_tree_node_baseRS4_	@840
_ZNSt8_Rb_treeIN5nsFTP8CCommand12TCommandEnumESt4pairIKS2_N14nsSmartPointer6RCIPtrINS1_13CExtendedInfoEEEESt10_Select1stIS9_ESt4lessIS2_ESaIS9_EE15_M_destroy_nodeEPSt13_Rb_tree_nodeIS9_E	@841
_ZNSt8_Rb_treeIN5nsFTP8CCommand12TCommandEnumESt4pairIKS2_N14nsSmartPointer6RCIPtrINS1_13CExtendedInfoEEEESt10_Select1stIS9_ESt4lessIS2_ESaIS9_EE16_M_insert_uniqueIS3_IS2_S8_EEES3_ISt17_Rb_tree_iteratorIS9_EbEOT_	@842
_ZNSt8_Rb_treeIN5nsFTP8CCommand12TCommandEnumESt4pairIKS2_N14nsSmartPointer6RCIPtrINS1_13CExtendedInfoEEEESt10_Select1stIS9_ESt4lessIS2_ESaIS9_EE17_M_construct_nodeIJS3_IS2_S8_EEEEvPSt13_Rb_tree_nodeIS9_EDpOT_	@843
_ZNSt8_Rb_treeIN5nsFTP8CCommand12TCommandEnumESt4pairIKS2_N14nsSmartPointer6RCIPtrINS1_13CExtendedInfoEEEESt10_Select1stIS9_ESt4lessIS2_ESaIS9_EE21_M_get_Node_allocatorEv	@844
_ZNSt8_Rb_treeIN5nsFTP8CCommand12TCommandEnumESt4pairIKS2_N14nsSmartPointer6RCIPtrINS1_13CExtendedInfoEEEESt10_Select1stIS9_ESt4lessIS2_ESaIS9_EE24_M_get_insert_unique_posERS4_	@845
_ZNSt8_Rb_treeIN5nsFTP8CCommand12TCommandEnumESt4pairIKS2_N14nsSmartPointer6RCIPtrINS1_13CExtendedInfoEEEESt10_Select1stIS9_ESt4lessIS2_ESaIS9_EE3endEv	@846
_ZNSt8_Rb_treeIN5nsFTP8CCommand12TCommandEnumESt4pairIKS2_N14nsSmartPointer6RCIPtrINS1_13CExtendedInfoEEEESt10_Select1stIS9_ESt4lessIS2_ESaIS9_EE4findERS4_	@847
_ZNSt8_Rb_treeIN5nsFTP8CCommand12TCommandEnumESt4pairIKS2_N14nsSmartPointer6RCIPtrINS1_13CExtendedInfoEEEESt10_Select1stIS9_ESt4lessIS2_ESaIS9_EE5beginEv	@848
_ZNSt8_Rb_treeIN5nsFTP8CCommand12TCommandEnumESt4pairIKS2_N14nsSmartPointer6RCIPtrINS1_13CExtendedInfoEEEESt10_Select1stIS9_ESt4lessIS2_ESaIS9_EE6_M_endEv	@849
_ZNSt8_Rb_treeIN5nsFTP8CCommand12TCommandEnumESt4pairIKS2_N14nsSmartPointer6RCIPtrINS1_13CExtendedInfoEEEESt10_Select1stIS9_ESt4lessIS2_ESaIS9_EE6_S_keyEPKSt13_Rb_tree_nodeIS9_E	@850
_ZNSt8_Rb_treeIN5nsFTP8CCommand12TCommandEnumESt4pairIKS2_N14nsSmartPointer6RCIPtrINS1_13CExtendedInfoEEEESt10_Select1stIS9_ESt4lessIS2_ESaIS9_EE6_S_keyEPKSt18_Rb_tree_node_base	@851
_ZNSt8_Rb_treeIN5nsFTP8CCommand12TCommandEnumESt4pairIKS2_N14nsSmartPointer6RCIPtrINS1_13CExtendedInfoEEEESt10_Select1stIS9_ESt4lessIS2_ESaIS9_EE7_S_leftEPSt18_Rb_tree_node_base	@852
_ZNSt8_Rb_treeIN5nsFTP8CCommand12TCommandEnumESt4pairIKS2_N14nsSmartPointer6RCIPtrINS1_13CExtendedInfoEEEESt10_Select1stIS9_ESt4lessIS2_ESaIS9_EE8_M_beginEv	@853
_ZNSt8_Rb_treeIN5nsFTP8CCommand12TCommandEnumESt4pairIKS2_N14nsSmartPointer6RCIPtrINS1_13CExtendedInfoEEEESt10_Select1stIS9_ESt4lessIS2_ESaIS9_EE8_M_eraseEPSt13_Rb_tree_nodeIS9_E	@854
_ZNSt8_Rb_treeIN5nsFTP8CCommand12TCommandEnumESt4pairIKS2_N14nsSmartPointer6RCIPtrINS1_13CExtendedInfoEEEESt10_Select1stIS9_ESt4lessIS2_ESaIS9_EE8_S_rightEPSt18_Rb_tree_node_base	@855
_ZNSt8_Rb_treeIN5nsFTP8CCommand12TCommandEnumESt4pairIKS2_N14nsSmartPointer6RCIPtrINS1_13CExtendedInfoEEEESt10_Select1stIS9_ESt4lessIS2_ESaIS9_EE8_S_valueEPKSt13_Rb_tree_nodeIS9_E	@856
_ZNSt8_Rb_treeIN5nsFTP8CCommand12TCommandEnumESt4pairIKS2_N14nsSmartPointer6RCIPtrINS1_13CExtendedInfoEEEESt10_Select1stIS9_ESt4lessIS2_ESaIS9_EE8_S_valueEPKSt18_Rb_tree_node_base	@857
_ZNSt8_Rb_treeIN5nsFTP8CCommand12TCommandEnumESt4pairIKS2_N14nsSmartPointer6RCIPtrINS1_13CExtendedInfoEEEESt10_Select1stIS9_ESt4lessIS2_ESaIS9_EEC1Ev	@858
_ZNSt8_Rb_treeIN5nsFTP8CCommand12TCommandEnumESt4pairIKS2_N14nsSmartPointer6RCIPtrINS1_13CExtendedInfoEEEESt10_Select1stIS9_ESt4lessIS2_ESaIS9_EED1Ev	@859
_ZNSt8_Rb_treeIPN5nsFTP10CFTPClient12TObserverSetES3_St9_IdentityIS3_ESt4lessIS3_ESaIS3_EE10_M_insert_IRKS3_NS9_11_Alloc_nodeEEESt17_Rb_tree_iteratorIS3_EPSt18_Rb_tree_node_baseSH_OT_RT0_	@860
_ZNSt8_Rb_treeIPN5nsFTP10CFTPClient12TObserverSetES3_St9_IdentityIS3_ESt4lessIS3_ESaIS3_EE11_Alloc_nodeC1ERS9_	@861
_ZNSt8_Rb_treeIPN5nsFTP10CFTPClient12TObserverSetES3_St9_IdentityIS3_ESt4lessIS3_ESaIS3_EE11_M_get_nodeEv	@862
_ZNSt8_Rb_treeIPN5nsFTP10CFTPClient12TObserverSetES3_St9_IdentityIS3_ESt4lessIS3_ESaIS3_EE11_M_put_nodeEPSt13_Rb_tree_nodeIS3_E	@863
_ZNSt8_Rb_treeIPN5nsFTP10CFTPClient12TObserverSetES3_St9_IdentityIS3_ESt4lessIS3_ESaIS3_EE11equal_rangeERKS3_	@864
_ZNSt8_Rb_treeIPN5nsFTP10CFTPClient12TObserverSetES3_St9_IdentityIS3_ESt4lessIS3_ESaIS3_EE12_M_drop_nodeEPSt13_Rb_tree_nodeIS3_E	@865
_ZNSt8_Rb_treeIPN5nsFTP10CFTPClient12TObserverSetES3_St9_IdentityIS3_ESt4lessIS3_ESaIS3_EE12_M_erase_auxESt23_Rb_tree_const_iteratorIS3_E	@866
_ZNSt8_Rb_treeIPN5nsFTP10CFTPClient12TObserverSetES3_St9_IdentityIS3_ESt4lessIS3_ESaIS3_EE12_M_erase_auxESt23_Rb_tree_const_iteratorIS3_ESB_	@867
_ZNSt8_Rb_treeIPN5nsFTP10CFTPClient12TObserverSetES3_St9_IdentityIS3_ESt4lessIS3_ESaIS3_EE14_M_create_nodeIJRKS3_EEEPSt13_Rb_tree_nodeIS3_EDpOT_	@868
_ZNSt8_Rb_treeIPN5nsFTP10CFTPClient12TObserverSetES3_St9_IdentityIS3_ESt4lessIS3_ESaIS3_EE14_M_lower_boundEPSt13_Rb_tree_nodeIS3_EPSt18_Rb_tree_node_baseRKS3_	@869
_ZNSt8_Rb_treeIPN5nsFTP10CFTPClient12TObserverSetES3_St9_IdentityIS3_ESt4lessIS3_ESaIS3_EE14_M_upper_boundEPSt13_Rb_tree_nodeIS3_EPSt18_Rb_tree_node_baseRKS3_	@870
_ZNSt8_Rb_treeIPN5nsFTP10CFTPClient12TObserverSetES3_St9_IdentityIS3_ESt4lessIS3_ESaIS3_EE15_M_destroy_nodeEPSt13_Rb_tree_nodeIS3_E	@871
_ZNSt8_Rb_treeIPN5nsFTP10CFTPClient12TObserverSetES3_St9_IdentityIS3_ESt4lessIS3_ESaIS3_EE16_M_insert_uniqueIRKS3_EESt4pairISt17_Rb_tree_iteratorIS3_EbEOT_	@872
_ZNSt8_Rb_treeIPN5nsFTP10CFTPClient12TObserverSetES3_St9_IdentityIS3_ESt4lessIS3_ESaIS3_EE17_M_construct_nodeIJRKS3_EEEvPSt13_Rb_tree_nodeIS3_EDpOT_	@873
_ZNSt8_Rb_treeIPN5nsFTP10CFTPClient12TObserverSetES3_St9_IdentityIS3_ESt4lessIS3_ESaIS3_EE21_M_get_Node_allocatorEv	@874
_ZNSt8_Rb_treeIPN5nsFTP10CFTPClient12TObserverSetES3_St9_IdentityIS3_ESt4lessIS3_ESaIS3_EE24_M_get_insert_unique_posERKS3_	@875
_ZNSt8_Rb_treeIPN5nsFTP10CFTPClient12TObserverSetES3_St9_IdentityIS3_ESt4lessIS3_ESaIS3_EE3endEv	@876
_ZNSt8_Rb_treeIPN5nsFTP10CFTPClient12TObserverSetES3_St9_IdentityIS3_ESt4lessIS3_ESaIS3_EE4findERKS3_	@877
_ZNSt8_Rb_treeIPN5nsFTP10CFTPClient12TObserverSetES3_St9_IdentityIS3_ESt4lessIS3_ESaIS3_EE5beginEv	@878
_ZNSt8_Rb_treeIPN5nsFTP10CFTPClient12TObserverSetES3_St9_IdentityIS3_ESt4lessIS3_ESaIS3_EE5clearEv	@879
_ZNSt8_Rb_treeIPN5nsFTP10CFTPClient12TObserverSetES3_St9_IdentityIS3_ESt4lessIS3_ESaIS3_EE5eraseERKS3_	@880
_ZNSt8_Rb_treeIPN5nsFTP10CFTPClient12TObserverSetES3_St9_IdentityIS3_ESt4lessIS3_ESaIS3_EE6_M_endEv	@881
_ZNSt8_Rb_treeIPN5nsFTP10CFTPClient12TObserverSetES3_St9_IdentityIS3_ESt4lessIS3_ESaIS3_EE6_S_keyEPKSt13_Rb_tree_nodeIS3_E	@882
_ZNSt8_Rb_treeIPN5nsFTP10CFTPClient12TObserverSetES3_St9_IdentityIS3_ESt4lessIS3_ESaIS3_EE6_S_keyEPKSt18_Rb_tree_node_base	@883
_ZNSt8_Rb_treeIPN5nsFTP10CFTPClient12TObserverSetES3_St9_IdentityIS3_ESt4lessIS3_ESaIS3_EE7_S_leftEPSt18_Rb_tree_node_base	@884
_ZNSt8_Rb_treeIPN5nsFTP10CFTPClient12TObserverSetES3_St9_IdentityIS3_ESt4lessIS3_ESaIS3_EE8_M_beginEv	@885
_ZNSt8_Rb_treeIPN5nsFTP10CFTPClient12TObserverSetES3_St9_IdentityIS3_ESt4lessIS3_ESaIS3_EE8_M_eraseEPSt13_Rb_tree_nodeIS3_E	@886
_ZNSt8_Rb_treeIPN5nsFTP10CFTPClient12TObserverSetES3_St9_IdentityIS3_ESt4lessIS3_ESaIS3_EE8_S_rightEPSt18_Rb_tree_node_base	@887
_ZNSt8_Rb_treeIPN5nsFTP10CFTPClient12TObserverSetES3_St9_IdentityIS3_ESt4lessIS3_ESaIS3_EE8_S_valueEPKSt13_Rb_tree_nodeIS3_E	@888
_ZNSt8_Rb_treeIPN5nsFTP10CFTPClient12TObserverSetES3_St9_IdentityIS3_ESt4lessIS3_ESaIS3_EE8_S_valueEPKSt18_Rb_tree_node_base	@889
_ZNSt8_Rb_treeIPN5nsFTP10CFTPClient13CNotificationES3_St9_IdentityIS3_ESt4lessIS3_ESaIS3_EE10_M_insert_IRKS3_NS9_11_Alloc_nodeEEESt17_Rb_tree_iteratorIS3_EPSt18_Rb_tree_node_baseSH_OT_RT0_	@890
_ZNSt8_Rb_treeIPN5nsFTP10CFTPClient13CNotificationES3_St9_IdentityIS3_ESt4lessIS3_ESaIS3_EE11_Alloc_nodeC1ERS9_	@891
_ZNSt8_Rb_treeIPN5nsFTP10CFTPClient13CNotificationES3_St9_IdentityIS3_ESt4lessIS3_ESaIS3_EE11_M_get_nodeEv	@892
_ZNSt8_Rb_treeIPN5nsFTP10CFTPClient13CNotificationES3_St9_IdentityIS3_ESt4lessIS3_ESaIS3_EE11_M_put_nodeEPSt13_Rb_tree_nodeIS3_E	@893
_ZNSt8_Rb_treeIPN5nsFTP10CFTPClient13CNotificationES3_St9_IdentityIS3_ESt4lessIS3_ESaIS3_EE11equal_rangeERKS3_	@894
_ZNSt8_Rb_treeIPN5nsFTP10CFTPClient13CNotificationES3_St9_IdentityIS3_ESt4lessIS3_ESaIS3_EE12_M_drop_nodeEPSt13_Rb_tree_nodeIS3_E	@895
_ZNSt8_Rb_treeIPN5nsFTP10CFTPClient13CNotificationES3_St9_IdentityIS3_ESt4lessIS3_ESaIS3_EE12_M_erase_auxESt23_Rb_tree_const_iteratorIS3_E	@896
_ZNSt8_Rb_treeIPN5nsFTP10CFTPClient13CNotificationES3_St9_IdentityIS3_ESt4lessIS3_ESaIS3_EE12_M_erase_auxESt23_Rb_tree_const_iteratorIS3_ESB_	@897
_ZNSt8_Rb_treeIPN5nsFTP10CFTPClient13CNotificationES3_St9_IdentityIS3_ESt4lessIS3_ESaIS3_EE13_Rb_tree_implIS7_Lb1EEC1Ev	@898
_ZNSt8_Rb_treeIPN5nsFTP10CFTPClient13CNotificationES3_St9_IdentityIS3_ESt4lessIS3_ESaIS3_EE13_Rb_tree_implIS7_Lb1EED1Ev	@899
_ZNSt8_Rb_treeIPN5nsFTP10CFTPClient13CNotificationES3_St9_IdentityIS3_ESt4lessIS3_ESaIS3_EE14_M_create_nodeIJRKS3_EEEPSt13_Rb_tree_nodeIS3_EDpOT_	@900
_ZNSt8_Rb_treeIPN5nsFTP10CFTPClient13CNotificationES3_St9_IdentityIS3_ESt4lessIS3_ESaIS3_EE14_M_lower_boundEPSt13_Rb_tree_nodeIS3_EPSt18_Rb_tree_node_baseRKS3_	@901
_ZNSt8_Rb_treeIPN5nsFTP10CFTPClient13CNotificationES3_St9_IdentityIS3_ESt4lessIS3_ESaIS3_EE14_M_upper_boundEPSt13_Rb_tree_nodeIS3_EPSt18_Rb_tree_node_baseRKS3_	@902
_ZNSt8_Rb_treeIPN5nsFTP10CFTPClient13CNotificationES3_St9_IdentityIS3_ESt4lessIS3_ESaIS3_EE15_M_destroy_nodeEPSt13_Rb_tree_nodeIS3_E	@903
_ZNSt8_Rb_treeIPN5nsFTP10CFTPClient13CNotificationES3_St9_IdentityIS3_ESt4lessIS3_ESaIS3_EE16_M_insert_uniqueIRKS3_EESt4pairISt17_Rb_tree_iteratorIS3_EbEOT_	@904
_ZNSt8_Rb_treeIPN5nsFTP10CFTPClient13CNotificationES3_St9_IdentityIS3_ESt4lessIS3_ESaIS3_EE17_M_construct_nodeIJRKS3_EEEvPSt13_Rb_tree_nodeIS3_EDpOT_	@905
_ZNSt8_Rb_treeIPN5nsFTP10CFTPClient13CNotificationES3_St9_IdentityIS3_ESt4lessIS3_ESaIS3_EE21_M_get_Node_allocatorEv	@906
_ZNSt8_Rb_treeIPN5nsFTP10CFTPClient13CNotificationES3_St9_IdentityIS3_ESt4lessIS3_ESaIS3_EE24_M_get_insert_unique_posERKS3_	@907
_ZNSt8_Rb_treeIPN5nsFTP10CFTPClient13CNotificationES3_St9_IdentityIS3_ESt4lessIS3_ESaIS3_EE3endEv	@908
_ZNSt8_Rb_treeIPN5nsFTP10CFTPClient13CNotificationES3_St9_IdentityIS3_ESt4lessIS3_ESaIS3_EE4findERKS3_	@909
_ZNSt8_Rb_treeIPN5nsFTP10CFTPClient13CNotificationES3_St9_IdentityIS3_ESt4lessIS3_ESaIS3_EE5beginEv	@910
_ZNSt8_Rb_treeIPN5nsFTP10CFTPClient13CNotificationES3_St9_IdentityIS3_ESt4lessIS3_ESaIS3_EE5clearEv	@911
_ZNSt8_Rb_treeIPN5nsFTP10CFTPClient13CNotificationES3_St9_IdentityIS3_ESt4lessIS3_ESaIS3_EE5eraseERKS3_	@912
_ZNSt8_Rb_treeIPN5nsFTP10CFTPClient13CNotificationES3_St9_IdentityIS3_ESt4lessIS3_ESaIS3_EE6_M_endEv	@913
_ZNSt8_Rb_treeIPN5nsFTP10CFTPClient13CNotificationES3_St9_IdentityIS3_ESt4lessIS3_ESaIS3_EE6_S_keyEPKSt13_Rb_tree_nodeIS3_E	@914
_ZNSt8_Rb_treeIPN5nsFTP10CFTPClient13CNotificationES3_St9_IdentityIS3_ESt4lessIS3_ESaIS3_EE6_S_keyEPKSt18_Rb_tree_node_base	@915
_ZNSt8_Rb_treeIPN5nsFTP10CFTPClient13CNotificationES3_St9_IdentityIS3_ESt4lessIS3_ESaIS3_EE7_S_leftEPSt18_Rb_tree_node_base	@916
_ZNSt8_Rb_treeIPN5nsFTP10CFTPClient13CNotificationES3_St9_IdentityIS3_ESt4lessIS3_ESaIS3_EE8_M_beginEv	@917
_ZNSt8_Rb_treeIPN5nsFTP10CFTPClient13CNotificationES3_St9_IdentityIS3_ESt4lessIS3_ESaIS3_EE8_M_eraseEPSt13_Rb_tree_nodeIS3_E	@918
_ZNSt8_Rb_treeIPN5nsFTP10CFTPClient13CNotificationES3_St9_IdentityIS3_ESt4lessIS3_ESaIS3_EE8_S_rightEPSt18_Rb_tree_node_base	@919
_ZNSt8_Rb_treeIPN5nsFTP10CFTPClient13CNotificationES3_St9_IdentityIS3_ESt4lessIS3_ESaIS3_EE8_S_valueEPKSt13_Rb_tree_nodeIS3_E	@920
_ZNSt8_Rb_treeIPN5nsFTP10CFTPClient13CNotificationES3_St9_IdentityIS3_ESt4lessIS3_ESaIS3_EE8_S_valueEPKSt18_Rb_tree_node_base	@921
_ZNSt8_Rb_treeIPN5nsFTP10CFTPClient13CNotificationES3_St9_IdentityIS3_ESt4lessIS3_ESaIS3_EEC1Ev	@922
_ZNSt8_Rb_treeIPN5nsFTP10CFTPClient13CNotificationES3_St9_IdentityIS3_ESt4lessIS3_ESaIS3_EED1Ev	@923
_ZSt10_ConstructIN14nsSmartPointer6RCIPtrIN5nsFTP14CFTPFileStatusEEEJRKS4_EEvPT_DpOT0_	@924
_ZSt10_ConstructIN5nsFTP13CFirewallTypeEJEEvPT_DpOT0_	@925
_ZSt10_ConstructIN5nsFTP13CFirewallTypeEJRKS1_EEvPT_DpOT0_	@926
_ZSt10_ConstructINSt7__cxx1112basic_stringIcSt11char_traitsIcESaIcEEEJS5_EEvPT_DpOT0_	@927
_ZSt10__fill_n_aIPcjiEN9__gnu_cxx11__enable_ifIXsrSt11__is_scalarIT1_E7__valueET_E6__typeES6_T0_RKS4_	@928
_ZSt10__fill_n_aIjcEN9__gnu_cxx11__enable_ifIXsrSt9__is_byteIT0_E7__valueEPS3_E6__typeES5_T_RKS3_	@929
_ZSt11__addressofIN14nsSmartPointer6RCIPtrIN5nsFTP14CFTPFileStatusEEEEPT_RS5_	@930
_ZSt11__addressofIN5nsFTP13CFirewallTypeEEPT_RS2_	@931
_ZSt11__addressofINSt7__cxx1112basic_stringIcSt11char_traitsIcESaIcEEEEPT_RS6_	@932
_ZSt12__miter_baseIN9__gnu_cxx17__normal_iteratorIPKcNSt7__cxx1112basic_stringIcSt11char_traitsIcESaIcEEEEEET_SB_	@933
_ZSt12__miter_baseIN9__gnu_cxx17__normal_iteratorIPKcSt6vectorIcSaIcEEEEET_S8_	@934
_ZSt12__miter_baseIPPNSt7__cxx1112basic_stringIcSt11char_traitsIcESaIcEEEET_S8_	@935
_ZSt12__niter_baseIPKcNSt7__cxx1112basic_stringIcSt11char_traitsIcESaIcEEEET_N9__gnu_cxx17__normal_iteratorIS8_T0_EE	@936
_ZSt12__niter_baseIPKcSt6vectorIcSaIcEEET_N9__gnu_cxx17__normal_iteratorIS5_T0_EE	@937
_ZSt12__niter_baseIPPNSt7__cxx1112basic_stringIcSt11char_traitsIcESaIcEEEET_S8_	@938
_ZSt12__niter_baseIPcET_S1_	@939
_ZSt12__niter_baseISt20back_insert_iteratorINSt7__cxx1112basic_stringIcSt11char_traitsIcESaIcEEEEET_S8_	@940
_ZSt13__copy_move_aILb0EPKcPcET1_T0_S4_S3_	@941
_ZSt13__copy_move_aILb0EPKcSt20back_insert_iteratorINSt7__cxx1112basic_stringIcSt11char_traitsIcESaIcEEEEET1_T0_SB_SA_	@942
_ZSt13__copy_move_aILb0EPPNSt7__cxx1112basic_stringIcSt11char_traitsIcESaIcEEES7_ET1_T0_S9_S8_	@943
_ZSt13back_inserterINSt7__cxx1112basic_stringIcSt11char_traitsIcESaIcEEEESt20back_insert_iteratorIT_ERS7_	@944
_ZSt13copy_backwardIPPNSt7__cxx1112basic_stringIcSt11char_traitsIcESaIcEEES7_ET0_T_S9_S8_	@945
_ZSt14__copy_move_a2ILb0EN9__gnu_cxx17__normal_iteratorIPKcNSt7__cxx1112basic_stringIcSt11char_traitsIcESaIcEEEEEPcET1_T0_SD_SC_	@946
_ZSt14__copy_move_a2ILb0EN9__gnu_cxx17__normal_iteratorIPKcSt6vectorIcSaIcEEEESt20back_insert_iteratorINSt7__cxx1112basic_stringIcSt11char_traitsIcES5_EEEET1_T0_SG_SF_	@947
_ZSt14__copy_move_a2ILb0EPPNSt7__cxx1112basic_stringIcSt11char_traitsIcESaIcEEES7_ET1_T0_S9_S8_	@948
_ZSt16__deque_buf_sizej 	@949
_ZSt18uninitialized_copyIPKN14nsSmartPointer6RCIPtrIN5nsFTP14CFTPFileStatusEEEPS4_ET0_T_S9_S8_	@950
_ZSt18uninitialized_copyIPKN5nsFTP13CFirewallTypeEPS1_ET0_T_S6_S5_	@951
_ZSt18uninitialized_copyISt13move_iteratorIPNSt7__cxx1112basic_stringIcSt11char_traitsIcESaIcEEEES7_ET0_T_SA_S9_	@952
_ZSt19__iterator_categoryIN9__gnu_cxx17__normal_iteratorIPcNSt7__cxx1112basic_stringIcSt11char_traitsIcESaIcEEEEEENSt15iterator_traitsIT_E17iterator_categoryERKSB_	@953
_ZSt22__copy_move_backward_aILb0EPPNSt7__cxx1112basic_stringIcSt11char_traitsIcESaIcEEES7_ET1_T0_S9_S8_	@954
_ZSt22__uninitialized_copy_aIPKN14nsSmartPointer6RCIPtrIN5nsFTP14CFTPFileStatusEEEPS4_S4_ET0_T_S9_S8_RSaIT1_E	@955
_ZSt22__uninitialized_copy_aIPKN5nsFTP13CFirewallTypeEPS1_S1_ET0_T_S6_S5_RSaIT1_E	@956
_ZSt22__uninitialized_copy_aISt13move_iteratorIPNSt7__cxx1112basic_stringIcSt11char_traitsIcESaIcEEEES7_S6_ET0_T_SA_S9_RSaIT1_E	@957
_ZSt23__copy_move_backward_a2ILb0EPPNSt7__cxx1112basic_stringIcSt11char_traitsIcESaIcEEES7_ET1_T0_S9_S8_	@958
_ZSt25__uninitialized_default_nIPN5nsFTP13CFirewallTypeEjET_S3_T0_	@959
_ZSt25__uninitialized_default_nIPcjET_S1_T0_	@960
_ZSt27__uninitialized_default_n_aIPN5nsFTP13CFirewallTypeEjS1_ET_S3_T0_RSaIT1_E	@961
_ZSt27__uninitialized_default_n_aIPcjcET_S1_T0_RSaIT1_E	@962
_ZSt32__make_move_if_noexcept_iteratorIN14nsSmartPointer6RCIPtrIN5nsFTP14CFTPFileStatusEEEPKS4_ET0_PT_	@963
_ZSt32__make_move_if_noexcept_iteratorIN5nsFTP13CFirewallTypeEPKS1_ET0_PT_	@964
_ZSt32__make_move_if_noexcept_iteratorINSt7__cxx1112basic_stringIcSt11char_traitsIcESaIcEEESt13move_iteratorIPS5_EET0_PT_	@965
_ZSt34__uninitialized_move_if_noexcept_aIPN14nsSmartPointer6RCIPtrIN5nsFTP14CFTPFileStatusEEES5_SaIS4_EET0_T_S8_S7_RT1_	@966
_ZSt34__uninitialized_move_if_noexcept_aIPN5nsFTP13CFirewallTypeES2_SaIS1_EET0_T_S5_S4_RT1_	@967
_ZSt34__uninitialized_move_if_noexcept_aIPNSt7__cxx1112basic_stringIcSt11char_traitsIcESaIcEEES6_SaIS5_EET0_T_S9_S8_RT1_	@968
_ZSt3maxIjERKT_S2_S2_   	@969
_ZSt3minIiERKT_S2_S2_   	@970
_ZSt4copyIN9__gnu_cxx17__normal_iteratorIPKcNSt7__cxx1112basic_stringIcSt11char_traitsIcESaIcEEEEEPcET0_T_SD_SC_	@971
_ZSt4copyIN9__gnu_cxx17__normal_iteratorIPKcSt6vectorIcSaIcEEEESt20back_insert_iteratorINSt7__cxx1112basic_stringIcSt11char_traitsIcES5_EEEET0_T_SG_SF_	@972
_ZSt4copyIPPNSt7__cxx1112basic_stringIcSt11char_traitsIcESaIcEEES7_ET0_T_S9_S8_	@973
_ZSt4moveIRNSt7__cxx1112basic_stringIcSt11char_traitsIcESaIcEEEEONSt16remove_referenceIT_E4typeEOS8_	@974
_ZSt4moveIRPN5nsFTP15CRepresentationEEONSt16remove_referenceIT_E4typeEOS5_	@975
_ZSt4swapIPN5nsFTP15CRepresentationEENSt9enable_ifIXsrSt6__and_IJSt6__not_ISt15__is_tuple_likeIT_EESt21is_move_constructibleIS7_ESt18is_move_assignableIS7_EEE5valueEvE4typeERS7_SH_	@976
_ZSt6fill_nIPcjcET_S1_T0_RKT1_	@977
_ZSt6fill_nIPcjiET_S1_T0_RKT1_	@978
_ZSt6searchIN9__gnu_cxx17__normal_iteratorIPcNSt7__cxx1112basic_stringIcSt11char_traitsIcESaIcEEEEENS1_IPKcS8_EEET_SD_SD_T0_SE_	@979
_ZSt7forwardIN14nsSmartPointer6RCIPtrIN5nsFTP8CCommand13CExtendedInfoEEEEOT_RNSt16remove_referenceIS6_E4typeE	@980
_ZSt7forwardIN5nsFTP8CCommand12TCommandEnumEEOT_RNSt16remove_referenceIS3_E4typeE	@981
_ZSt7forwardINSt7__cxx1112basic_stringIcSt11char_traitsIcESaIcEEEEOT_RNSt16remove_referenceIS6_E4typeE	@982
_ZSt7forwardIRKN14nsSmartPointer6RCIPtrIN5nsFTP14CFTPFileStatusEEEEOT_RNSt16remove_referenceIS7_E4typeE	@983
_ZSt7forwardIRKN5nsFTP13CFirewallTypeEEOT_RNSt16remove_referenceIS4_E4typeE	@984
_ZSt7forwardIRKNSt7__cxx1112basic_stringIcSt11char_traitsIcESaIcEEEEOT_RNSt16remove_referenceIS8_E4typeE	@985
_ZSt7forwardIRKPN5nsFTP10CFTPClient12TObserverSetEEOT_RNSt16remove_referenceIS6_E4typeE	@986
_ZSt7forwardIRKPN5nsFTP10CFTPClient13CNotificationEEOT_RNSt16remove_referenceIS6_E4typeE	@987
_ZSt7forwardIRN5nsFTP8CCommand12TCommandEnumEEOT_RNSt16remove_referenceIS4_E4typeE	@988
_ZSt7forwardIRPSt13_Rb_tree_nodeIPN5nsFTP10CFTPClient12TObserverSetEEEOT_RNSt16remove_referenceIS8_E4typeE	@989
_ZSt7forwardIRPSt13_Rb_tree_nodeIPN5nsFTP10CFTPClient13CNotificationEEEOT_RNSt16remove_referenceIS8_E4typeE	@990
_ZSt7forwardIRPSt13_Rb_tree_nodeISt4pairIKN5nsFTP8CCommand12TCommandEnumEN14nsSmartPointer6RCIPtrINS3_13CExtendedInfoEEEEEEOT_RNSt16remove_referenceISE_E4typeE	@991
_ZSt7forwardIRPSt18_Rb_tree_node_baseEOT_RNSt16remove_referenceIS3_E4typeE	@992
_ZSt7forwardIRSt17_Rb_tree_iteratorIPN5nsFTP10CFTPClient12TObserverSetEEEOT_RNSt16remove_referenceIS7_E4typeE	@993
_ZSt7forwardIRSt17_Rb_tree_iteratorIPN5nsFTP10CFTPClient13CNotificationEEEOT_RNSt16remove_referenceIS7_E4typeE	@994
_ZSt7forwardIRbEOT_RNSt16remove_referenceIS1_E4typeE	@995
_ZSt7forwardISt17_Rb_tree_iteratorIPN5nsFTP10CFTPClient12TObserverSetEEEOT_RNSt16remove_referenceIS6_E4typeE	@996
_ZSt7forwardISt17_Rb_tree_iteratorIPN5nsFTP10CFTPClient13CNotificationEEEOT_RNSt16remove_referenceIS6_E4typeE	@997
_ZSt7forwardISt17_Rb_tree_iteratorISt4pairIKN5nsFTP8CCommand12TCommandEnumEN14nsSmartPointer6RCIPtrINS3_13CExtendedInfoEEEEEEOT_RNSt16remove_referenceISC_E4typeE	@998
_ZSt7forwardISt4pairIN5nsFTP8CCommand12TCommandEnumEN14nsSmartPointer6RCIPtrINS2_13CExtendedInfoEEEEEOT_RNSt16remove_referenceIS9_E4typeE	@999
_ZSt7forwardIbEOT_RNSt16remove_referenceIS0_E4typeE	@1000
_ZSt8_DestroyIN14nsSmartPointer6RCIPtrIN5nsFTP14CFTPFileStatusEEEEvPT_	@1001
_ZSt8_DestroyINSt7__cxx1112basic_stringIcSt11char_traitsIcESaIcEEEEvPT_	@1002
_ZSt8_DestroyIPN14nsSmartPointer6RCIPtrIN5nsFTP14CFTPFileStatusEEEEvT_S6_	@1003
_ZSt8_DestroyIPN14nsSmartPointer6RCIPtrIN5nsFTP14CFTPFileStatusEEES4_EvT_S6_RSaIT0_E	@1004
_ZSt8_DestroyIPN5nsFTP13CFirewallTypeEEvT_S3_	@1005
_ZSt8_DestroyIPN5nsFTP13CFirewallTypeES1_EvT_S3_RSaIT0_E	@1006
_ZSt8_DestroyIPNSt7__cxx1112basic_stringIcSt11char_traitsIcESaIcEEEEvT_S7_	@1007
_ZSt8_DestroyIPNSt7__cxx1112basic_stringIcSt11char_traitsIcESaIcEEES5_EvT_S7_RSaIT0_E	@1008
_ZSt8_DestroyIPcEvT_S1_ 	@1009
_ZSt8_DestroyIPccEvT_S1_RSaIT0_E	@1010
_ZSt8__fill_aIcEN9__gnu_cxx11__enable_ifIXsrSt9__is_byteIT_E7__valueEvE6__typeEPS3_S7_RKS3_	@1011
_ZSt8__searchIN9__gnu_cxx17__normal_iteratorIPcNSt7__cxx1112basic_stringIcSt11char_traitsIcESaIcEEEEENS1_IPKcS8_EENS0_5__ops19_Iter_equal_to_iterEET_SF_SF_T0_SG_T1_	@1012
_ZSt9__find_ifIN9__gnu_cxx17__normal_iteratorIPcNSt7__cxx1112basic_stringIcSt11char_traitsIcESaIcEEEEENS0_5__ops17_Iter_equals_iterINS1_IPKcS8_EEEEET_SG_SG_T0_	@1013
_ZSt9__find_ifIN9__gnu_cxx17__normal_iteratorIPcNSt7__cxx1112basic_stringIcSt11char_traitsIcESaIcEEEEENS0_5__ops17_Iter_equals_iterINS1_IPKcS8_EEEEET_SG_SG_T0_St26random_access_iterator_tag	@1014
_ZSt9make_pairIRN5nsFTP8CCommand12TCommandEnumEN14nsSmartPointer6RCIPtrINS1_13CExtendedInfoEEEESt4pairINSt17__decay_and_stripIT_E6__typeENS9_IT0_E6__typeEEOSA_OSD_	@1015
_ZSteqINSt7__cxx1112basic_stringIcSt11char_traitsIcESaIcEEERS5_PS5_EbRKSt15_Deque_iteratorIT_T0_T1_ESE_	@1016
_ZSteqIPNSt7__cxx1112basic_stringIcSt11char_traitsIcESaIcEEEEbRKSt13move_iteratorIT_ESB_	@1017
_ZSteqIcEN9__gnu_cxx11__enable_ifIXsrSt9__is_charIT_E7__valueEbE6__typeERKNSt7__cxx1112basic_stringIS3_St11char_traitsIS3_ESaIS3_EEESE_	@1018
_ZSteqIcSt11char_traitsIcESaIcEEbRKNSt7__cxx1112basic_stringIT_T0_T1_EEPKS5_	@1019
_ZStneIPNSt7__cxx1112basic_stringIcSt11char_traitsIcESaIcEEEEbRKSt13move_iteratorIT_ESB_	@1020
_ZStplIcSt11char_traitsIcESaIcEENSt7__cxx1112basic_stringIT_T0_T1_EEOS8_PKS5_	@1021
_ZStplIcSt11char_traitsIcESaIcEENSt7__cxx1112basic_stringIT_T0_T1_EEOS8_RKS8_	@1022
_ZStplIcSt11char_traitsIcESaIcEENSt7__cxx1112basic_stringIT_T0_T1_EEPKS5_RKS8_	@1023
_ZStplIcSt11char_traitsIcESaIcEENSt7__cxx1112basic_stringIT_T0_T1_EERKS8_PKS5_	@1024
_ZStplIcSt11char_traitsIcESaIcEENSt7__cxx1112basic_stringIT_T0_T1_EERKS8_SA_	@1025
_ZTIN14nsSmartPointer6RCIPtrIN5nsFTP13COutputStream6CPimplEE11CountHolderE	@1026 DATA
_ZTIN14nsSmartPointer6RCIPtrIN5nsFTP14CFTPFileStatusEE11CountHolderE	@1027 DATA
_ZTIN14nsSmartPointer6RCIPtrIN5nsFTP8CCommand13CExtendedInfoEE11CountHolderE	@1028 DATA
_ZTIN14nsSmartPointer8RCObjectE	@1029 DATA
_ZTIN5nsFTP10CFTPClient15IFileListParserE	@1030 DATA
_ZTIN5nsFTP10CFTPClient21ITransferNotificationE	@1031 DATA
_ZTIN5nsFTP10CFTPClientE	@1032 DATA
_ZTIN5nsFTP10IInterfaceE	@1033 DATA
_ZTIN5nsFTP13COutputStreamE	@1034 DATA
_ZTIN5nsFTP14CFTPListParserE	@1035 DATA
_ZTIN5nsFTP5CFileE      	@1036 DATA
_ZTIN5nsFTP8CCommand13CExtendedInfoE	@1037 DATA
_ZTIN5nsFTP8CCommand13IExtendedInfoE	@1038 DATA
_ZTIN8nsSocket15CBlockingSocketE	@1039 DATA
_ZTIN8nsSocket15IBlockingSocketE	@1040 DATA
_ZTIN8nsSocket19CHttpBlockingSocketE	@1041 DATA
_ZTIN8nsSocket24CBlockingSocketExceptionE	@1042 DATA
_ZTISt11_Mutex_baseILN9__gnu_cxx12_Lock_policyE2EE	@1043 DATA
_ZTISt15_Sp_counted_ptrIPN5nsFTP14CFTPListParserELN9__gnu_cxx12_Lock_policyE2EE	@1044 DATA
_ZTISt15_Sp_counted_ptrIPN5nsFTP15CRepresentationELN9__gnu_cxx12_Lock_policyE2EE	@1045 DATA
_ZTISt15_Sp_counted_ptrIPN8nsSocket15CBlockingSocketELN9__gnu_cxx12_Lock_policyE2EE	@1046 DATA
_ZTISt15_Sp_counted_ptrIPN8nsSocket15IBlockingSocketELN9__gnu_cxx12_Lock_policyE2EE	@1047 DATA
_ZTISt16_Sp_counted_baseILN9__gnu_cxx12_Lock_policyE2EE	@1048 DATA
_ZTSN14nsSmartPointer6RCIPtrIN5nsFTP13COutputStream6CPimplEE11CountHolderE	@1049 DATA
_ZTSN14nsSmartPointer6RCIPtrIN5nsFTP14CFTPFileStatusEE11CountHolderE	@1050 DATA
_ZTSN14nsSmartPointer6RCIPtrIN5nsFTP8CCommand13CExtendedInfoEE11CountHolderE	@1051 DATA
_ZTSN14nsSmartPointer8RCObjectE	@1052 DATA
_ZTSN5nsFTP10CFTPClient15IFileListParserE	@1053 DATA
_ZTSN5nsFTP10CFTPClient21ITransferNotificationE	@1054 DATA
_ZTSN5nsFTP10CFTPClientE	@1055 DATA
_ZTSN5nsFTP10IInterfaceE	@1056 DATA
_ZTSN5nsFTP13COutputStreamE	@1057 DATA
_ZTSN5nsFTP14CFTPListParserE	@1058 DATA
_ZTSN5nsFTP5CFileE      	@1059 DATA
_ZTSN5nsFTP8CCommand13CExtendedInfoE	@1060 DATA
_ZTSN5nsFTP8CCommand13IExtendedInfoE	@1061 DATA
_ZTSN8nsSocket15CBlockingSocketE	@1062 DATA
_ZTSN8nsSocket15IBlockingSocketE	@1063 DATA
_ZTSN8nsSocket19CHttpBlockingSocketE	@1064 DATA
_ZTSN8nsSocket24CBlockingSocketExceptionE	@1065 DATA
_ZTSSt11_Mutex_baseILN9__gnu_cxx12_Lock_policyE2EE	@1066 DATA
_ZTSSt15_Sp_counted_ptrIPN5nsFTP14CFTPListParserELN9__gnu_cxx12_Lock_policyE2EE	@1067 DATA
_ZTSSt15_Sp_counted_ptrIPN5nsFTP15CRepresentationELN9__gnu_cxx12_Lock_policyE2EE	@1068 DATA
_ZTSSt15_Sp_counted_ptrIPN8nsSocket15CBlockingSocketELN9__gnu_cxx12_Lock_policyE2EE	@1069 DATA
_ZTSSt15_Sp_counted_ptrIPN8nsSocket15IBlockingSocketELN9__gnu_cxx12_Lock_policyE2EE	@1070 DATA
_ZTSSt16_Sp_counted_baseILN9__gnu_cxx12_Lock_policyE2EE	@1071 DATA
_ZTVN14nsSmartPointer6RCIPtrIN5nsFTP13COutputStream6CPimplEE11CountHolderE	@1072 DATA
_ZTVN14nsSmartPointer6RCIPtrIN5nsFTP14CFTPFileStatusEE11CountHolderE	@1073 DATA
_ZTVN14nsSmartPointer6RCIPtrIN5nsFTP8CCommand13CExtendedInfoEE11CountHolderE	@1074 DATA
_ZTVN14nsSmartPointer8RCObjectE	@1075 DATA
_ZTVN5nsFTP10CFTPClient15IFileListParserE	@1076 DATA
_ZTVN5nsFTP10CFTPClient21ITransferNotificationE	@1077 DATA
_ZTVN5nsFTP10CFTPClientE	@1078 DATA
_ZTVN5nsFTP10IInterfaceE	@1079 DATA
_ZTVN5nsFTP13COutputStreamE	@1080 DATA
_ZTVN5nsFTP14CFTPListParserE	@1081 DATA
_ZTVN5nsFTP5CFileE      	@1082 DATA
_ZTVN5nsFTP8CCommand13CExtendedInfoE	@1083 DATA
_ZTVN5nsFTP8CCommand13IExtendedInfoE	@1084 DATA
_ZTVN8nsSocket15CBlockingSocketE	@1085 DATA
_ZTVN8nsSocket15IBlockingSocketE	@1086 DATA
_ZTVN8nsSocket19CHttpBlockingSocketE	@1087 DATA
_ZTVN8nsSocket24CBlockingSocketExceptionE	@1088 DATA
_ZTVSt15_Sp_counted_ptrIPN5nsFTP14CFTPListParserELN9__gnu_cxx12_Lock_policyE2EE	@1089 DATA
_ZTVSt15_Sp_counted_ptrIPN5nsFTP15CRepresentationELN9__gnu_cxx12_Lock_policyE2EE	@1090 DATA
_ZTVSt15_Sp_counted_ptrIPN8nsSocket15CBlockingSocketELN9__gnu_cxx12_Lock_policyE2EE	@1091 DATA
_ZTVSt15_Sp_counted_ptrIPN8nsSocket15IBlockingSocketELN9__gnu_cxx12_Lock_policyE2EE	@1092 DATA
_ZTVSt16_Sp_counted_baseILN9__gnu_cxx12_Lock_policyE2EE	@1093 DATA
_ZZN5nsFTP8CCommand9CCmd2Info11GetInstanceEvE13TheOneAndOnly	@1094 DATA
_ZdlPvS_                	@1095
_ZnwjPv                 	@1096
__deregister_frame      	@1097
__deregister_frame_info 	@1098
__deregister_frame_info_bases	@1099
__emutls_get_address    	@1100
__emutls_register_common	@1101
__frame_state_for       	@1102
__pth_gpointer_locked   	@1103
__pthread_clock_nanosleep	@1104
__pthread_shallcancel   	@1105
__register_frame        	@1106
__register_frame_info   	@1107
__register_frame_info_bases	@1108
__register_frame_info_table	@1109
__register_frame_info_table_bases	@1110
__register_frame_table  	@1111
__xl_f                  	@1112 DATA
_pthread_cleanup_dest   	@1113
_pthread_get_state      	@1114
_pthread_invoke_cancel  	@1115
_pthread_key_dest       	@1116 DATA
_pthread_rel_time_in_ms 	@1117
_pthread_set_state      	@1118
_pthread_setnobreak     	@1119
_pthread_time_in_ms     	@1120
_pthread_time_in_ms_from_timespec	@1121
_pthread_tryjoin        	@1122
cond_print              	@1123
cond_print_set          	@1124
do_sema_b_wait_intern   	@1125
pthread_attr_destroy    	@1126
pthread_attr_getdetachstate	@1127
pthread_attr_getinheritsched	@1128
pthread_attr_getscope   	@1129
pthread_attr_getstackaddr	@1130
pthread_attr_getstacksize	@1131
pthread_attr_init       	@1132
pthread_attr_setdetachstate	@1133
pthread_attr_setinheritsched	@1134
pthread_attr_setscope   	@1135
pthread_attr_setstackaddr	@1136
pthread_attr_setstacksize	@1137
pthread_cancel          	@1138
pthread_cond_broadcast  	@1139
pthread_cond_destroy    	@1140
pthread_cond_init       	@1141
pthread_cond_signal     	@1142
pthread_cond_timedwait  	@1143
pthread_cond_timedwait_relative_np	@1144
pthread_cond_wait       	@1145
pthread_condattr_destroy	@1146
pthread_condattr_getclock	@1147
pthread_condattr_getpshared	@1148
pthread_condattr_init   	@1149
pthread_condattr_setclock	@1150
pthread_condattr_setpshared	@1151
pthread_create          	@1152
pthread_create_wrapper  	@1153
pthread_delay_np        	@1154
pthread_delay_np_ms     	@1155
pthread_detach          	@1156
pthread_equal           	@1157
pthread_exit            	@1158
pthread_get_concurrency 	@1159
pthread_getclean        	@1160
pthread_getconcurrency  	@1161
pthread_getevent        	@1162
pthread_gethandle       	@1163
pthread_getname_np      	@1164
pthread_getspecific     	@1165
pthread_join            	@1166
pthread_key_create      	@1167
pthread_key_delete      	@1168
pthread_kill            	@1169
pthread_mutex_destroy   	@1170
pthread_mutex_init      	@1171
pthread_mutex_lock      	@1172
pthread_mutex_timedlock 	@1173
pthread_mutex_trylock   	@1174
pthread_mutex_unlock    	@1175
pthread_mutexattr_destroy	@1176
pthread_mutexattr_getprioceiling	@1177
pthread_mutexattr_getprotocol	@1178
pthread_mutexattr_getpshared	@1179
pthread_mutexattr_gettype	@1180
pthread_mutexattr_init  	@1181
pthread_mutexattr_setprioceiling	@1182
pthread_mutexattr_setprotocol	@1183
pthread_mutexattr_setpshared	@1184
pthread_mutexattr_settype	@1185
pthread_num_processors_np	@1186
pthread_once            	@1187
pthread_rwlock_destroy  	@1188
pthread_rwlock_init     	@1189
pthread_rwlock_rdlock   	@1190
pthread_rwlock_timedrdlock	@1191
pthread_rwlock_timedwrlock	@1192
pthread_rwlock_tryrdlock	@1193
pthread_rwlock_trywrlock	@1194
pthread_rwlock_unlock   	@1195
pthread_rwlock_wrlock   	@1196
pthread_rwlockattr_destroy	@1197
pthread_rwlockattr_getpshared	@1198
pthread_rwlockattr_init 	@1199
pthread_rwlockattr_setpshared	@1200
pthread_self            	@1201
pthread_set_concurrency 	@1202
pthread_set_num_processors_np	@1203
pthread_setcancelstate  	@1204
pthread_setcanceltype   	@1205
pthread_setconcurrency  	@1206
pthread_setname_np      	@1207
pthread_setspecific     	@1208
pthread_spin_destroy    	@1209
pthread_spin_init       	@1210
pthread_spin_lock       	@1211
pthread_spin_trylock    	@1212
pthread_spin_unlock     	@1213
pthread_testcancel      	@1214
pthread_timechange_handler_np	@1215
pthread_tls_init        	@1216
rwl_print               	@1217
rwl_print_set           	@1218
thread_print            	@1219
thread_print_set        	@1220
